; Listing generated by Microsoft (R) Optimizing Compiler Version 18.00.40629.0 

	TITLE	C:\Users\Philip\Documents\GitHub\MollenOS\clib\src\math\copysign.c
	.686P
	.XMM
	include listing.inc
	.model	flat

INCLUDELIB MSVCRT
INCLUDELIB OLDNAMES

PUBLIC	___fpclassifyl
PUBLIC	___fpclassifyf
PUBLIC	___fpclassify
PUBLIC	___isnan
PUBLIC	___isnanf
PUBLIC	___isnanl
PUBLIC	___signbit
PUBLIC	___signbitf
PUBLIC	___signbitl
PUBLIC	_logb
PUBLIC	_logbf
PUBLIC	_logbl
PUBLIC	_rint
PUBLIC	_rintf
PUBLIC	_rintl
PUBLIC	_lrint
PUBLIC	_lrintf
PUBLIC	_lrintl
PUBLIC	_llrint
PUBLIC	_llrintf
PUBLIC	_llrintl
PUBLIC	_copysign
PUBLIC	_copysignf
PUBLIC	__real@00000000
PUBLIC	__real@0000000000000000
EXTRN	__fltused:DWORD
;	COMDAT __real@0000000000000000
CONST	SEGMENT
__real@0000000000000000 DQ 00000000000000000r	; 0
CONST	ENDS
;	COMDAT __real@00000000
CONST	SEGMENT
__real@00000000 DD 000000000r			; 0
CONST	ENDS
; Function compile flags: /Ogtp
; File c:\users\philip\documents\github\mollenos\clib\src\math\copysign.c
;	COMDAT _copysignf
_TEXT	SEGMENT
_x$ = 8							; size = 4
tv75 = 12						; size = 4
_y$ = 12						; size = 4
_copysignf PROC						; COMDAT

; 50   : {

  00000	55		 push	 ebp
  00001	8b ec		 mov	 ebp, esp

; 51   : 	return (float)copysign((double)x, (double)y);

  00003	d9 45 0c	 fld	 DWORD PTR _y$[ebp]
  00006	83 ec 10	 sub	 esp, 16			; 00000010H
  00009	dd 5c 24 08	 fstp	 QWORD PTR [esp+8]
  0000d	d9 45 08	 fld	 DWORD PTR _x$[ebp]
  00010	dd 1c 24	 fstp	 QWORD PTR [esp]
  00013	e8 00 00 00 00	 call	 _copysign
  00018	d9 5d 0c	 fstp	 DWORD PTR tv75[ebp]
  0001b	d9 45 0c	 fld	 DWORD PTR tv75[ebp]
  0001e	83 c4 10	 add	 esp, 16			; 00000010H

; 52   : }

  00021	5d		 pop	 ebp
  00022	c3		 ret	 0
_copysignf ENDP
_TEXT	ENDS
; Function compile flags: /Ogtp
; File c:\users\philip\documents\github\mollenos\clib\src\math\copysign.c
;	COMDAT _copysign
_TEXT	SEGMENT
_x$ = 8							; size = 8
_y$ = 16						; size = 8
_copysign PROC						; COMDAT

; 41   : {

  00000	55		 push	 ebp
  00001	8b ec		 mov	 ebp, esp

; 42   : 	__HI(x) = (__HI(x)&0x7fffffff)|(__HI(y)&0x80000000);

  00003	8b 4d 14	 mov	 ecx, DWORD PTR _y$[ebp+4]
  00006	33 4d 0c	 xor	 ecx, DWORD PTR _x$[ebp+4]
  00009	81 e1 ff ff ff
	7f		 and	 ecx, 2147483647		; 7fffffffH
  0000f	33 4d 14	 xor	 ecx, DWORD PTR _y$[ebp+4]
  00012	89 4d 0c	 mov	 DWORD PTR _x$[ebp+4], ecx

; 43   : 	return x;

  00015	dd 45 08	 fld	 QWORD PTR _x$[ebp]

; 44   : }

  00018	5d		 pop	 ebp
  00019	c3		 ret	 0
_copysign ENDP
_TEXT	ENDS
; Function compile flags: /Ogtp
; File c:\users\philip\documents\github\mollenos\clib\include\math.h
;	COMDAT _llrintl
_TEXT	SEGMENT
_retval$ = -8						; size = 8
_x$ = 8							; size = 8
_llrintl PROC						; COMDAT

; 600  : {

  00000	55		 push	 ebp
  00001	8b ec		 mov	 ebp, esp
  00003	83 ec 08	 sub	 esp, 8

; 601  : 	long long retval = 0ll;

  00006	c7 45 f8 00 00
	00 00		 mov	 DWORD PTR _retval$[ebp], 0
  0000d	c7 45 fc 00 00
	00 00		 mov	 DWORD PTR _retval$[ebp+4], 0

; 602  : #if defined(_MSC_VER)
; 603  : 	_asm {
; 604  : 		fld [x];

  00014	dd 45 08	 fld	 QWORD PTR _x$[ebp]

; 605  : 		fistp [retval];

  00017	df 7d f8	 fistp	 QWORD PTR _retval$[ebp]

; 606  : 	}
; 607  : #else
; 608  : 	__asm__ __volatile__("fistpll %0"  : "=m" (retval) : "t" (x) : "st");
; 609  : #endif
; 610  : 	return retval;

  0001a	8b 45 f8	 mov	 eax, DWORD PTR _retval$[ebp]
  0001d	8b 55 fc	 mov	 edx, DWORD PTR _retval$[ebp+4]

; 611  : }

  00020	8b e5		 mov	 esp, ebp
  00022	5d		 pop	 ebp
  00023	c3		 ret	 0
_llrintl ENDP
_TEXT	ENDS
; Function compile flags: /Ogtp
; File c:\users\philip\documents\github\mollenos\clib\include\math.h
;	COMDAT _llrintf
_TEXT	SEGMENT
_retval$ = -8						; size = 8
_x$ = 8							; size = 4
_llrintf PROC						; COMDAT

; 586  : {

  00000	55		 push	 ebp
  00001	8b ec		 mov	 ebp, esp
  00003	83 ec 08	 sub	 esp, 8

; 587  : 	long long retval = 0ll;

  00006	c7 45 f8 00 00
	00 00		 mov	 DWORD PTR _retval$[ebp], 0
  0000d	c7 45 fc 00 00
	00 00		 mov	 DWORD PTR _retval$[ebp+4], 0

; 588  : #if defined(_MSC_VER)
; 589  : 	_asm {
; 590  : 		fld [x];

  00014	d9 45 08	 fld	 DWORD PTR _x$[ebp]

; 591  : 		fistp [retval];

  00017	df 7d f8	 fistp	 QWORD PTR _retval$[ebp]

; 592  : 	}
; 593  : #else
; 594  : 	__asm__ __volatile__("fistpll %0"  : "=m" (retval) : "t" (x) : "st");
; 595  : #endif
; 596  : 	return retval;

  0001a	8b 45 f8	 mov	 eax, DWORD PTR _retval$[ebp]
  0001d	8b 55 fc	 mov	 edx, DWORD PTR _retval$[ebp+4]

; 597  : }

  00020	8b e5		 mov	 esp, ebp
  00022	5d		 pop	 ebp
  00023	c3		 ret	 0
_llrintf ENDP
_TEXT	ENDS
; Function compile flags: /Ogtp
; File c:\users\philip\documents\github\mollenos\clib\include\math.h
;	COMDAT _llrint
_TEXT	SEGMENT
_retval$ = -8						; size = 8
_x$ = 8							; size = 8
_llrint	PROC						; COMDAT

; 572  : {

  00000	55		 push	 ebp
  00001	8b ec		 mov	 ebp, esp
  00003	83 ec 08	 sub	 esp, 8

; 573  : 	long long retval = 0ll;

  00006	c7 45 f8 00 00
	00 00		 mov	 DWORD PTR _retval$[ebp], 0
  0000d	c7 45 fc 00 00
	00 00		 mov	 DWORD PTR _retval$[ebp+4], 0

; 574  : #if defined(_MSC_VER)
; 575  : 	_asm {
; 576  : 		fld [x];

  00014	dd 45 08	 fld	 QWORD PTR _x$[ebp]

; 577  : 		fistp [retval];

  00017	df 7d f8	 fistp	 QWORD PTR _retval$[ebp]

; 578  : 	}
; 579  : #else
; 580  : 	__asm__ __volatile__("fistpll %0"  : "=m" (retval) : "t" (x) : "st");
; 581  : #endif
; 582  : 	return retval;

  0001a	8b 45 f8	 mov	 eax, DWORD PTR _retval$[ebp]
  0001d	8b 55 fc	 mov	 edx, DWORD PTR _retval$[ebp+4]

; 583  : }

  00020	8b e5		 mov	 esp, ebp
  00022	5d		 pop	 ebp
  00023	c3		 ret	 0
_llrint	ENDP
_TEXT	ENDS
; Function compile flags: /Ogtp
; File c:\users\philip\documents\github\mollenos\clib\include\math.h
;	COMDAT _lrintl
_TEXT	SEGMENT
_retval$ = -4						; size = 4
_x$ = 8							; size = 8
_lrintl	PROC						; COMDAT

; 559  : {

  00000	55		 push	 ebp
  00001	8b ec		 mov	 ebp, esp
  00003	51		 push	 ecx

; 560  : 	long retval = 0;

  00004	c7 45 fc 00 00
	00 00		 mov	 DWORD PTR _retval$[ebp], 0

; 561  : #if defined(_MSC_VER)
; 562  : 	_asm {
; 563  : 		fld [x];

  0000b	dd 45 08	 fld	 QWORD PTR _x$[ebp]

; 564  : 		fistp [retval];

  0000e	db 5d fc	 fistp	 DWORD PTR _retval$[ebp]

; 565  : 	}
; 566  : #else
; 567  : 	__asm__ __volatile__("fistpl %0"  : "=m" (retval) : "t" (x) : "st");
; 568  : #endif
; 569  : }

  00011	8b e5		 mov	 esp, ebp
  00013	5d		 pop	 ebp
  00014	c3		 ret	 0
_lrintl	ENDP
_TEXT	ENDS
; Function compile flags: /Ogtp
; File c:\users\philip\documents\github\mollenos\clib\include\math.h
;	COMDAT _lrintf
_TEXT	SEGMENT
_retval$ = -4						; size = 4
_x$ = 8							; size = 4
_lrintf	PROC						; COMDAT

; 545  : {

  00000	55		 push	 ebp
  00001	8b ec		 mov	 ebp, esp
  00003	51		 push	 ecx

; 546  : 	long retval = 0;

  00004	c7 45 fc 00 00
	00 00		 mov	 DWORD PTR _retval$[ebp], 0

; 547  : #if defined(_MSC_VER)
; 548  : 	_asm {
; 549  : 		fld [x];

  0000b	d9 45 08	 fld	 DWORD PTR _x$[ebp]

; 550  : 		fistp [retval];

  0000e	db 5d fc	 fistp	 DWORD PTR _retval$[ebp]

; 551  : 	}
; 552  : #else
; 553  : 	__asm__ __volatile__("fistpl %0"  : "=m" (retval) : "t" (x) : "st");
; 554  : #endif
; 555  : 	return retval;

  00011	8b 45 fc	 mov	 eax, DWORD PTR _retval$[ebp]

; 556  : }

  00014	8b e5		 mov	 esp, ebp
  00016	5d		 pop	 ebp
  00017	c3		 ret	 0
_lrintf	ENDP
_TEXT	ENDS
; Function compile flags: /Ogtp
; File c:\users\philip\documents\github\mollenos\clib\include\math.h
;	COMDAT _lrint
_TEXT	SEGMENT
_retval$ = -4						; size = 4
_x$ = 8							; size = 8
_lrint	PROC						; COMDAT

; 531  : {

  00000	55		 push	 ebp
  00001	8b ec		 mov	 ebp, esp
  00003	51		 push	 ecx

; 532  : 	long retval = 0;

  00004	c7 45 fc 00 00
	00 00		 mov	 DWORD PTR _retval$[ebp], 0

; 533  : #if defined(_MSC_VER)
; 534  : 	_asm {
; 535  : 		fld [x];

  0000b	dd 45 08	 fld	 QWORD PTR _x$[ebp]

; 536  : 		fistp [retval];

  0000e	db 5d fc	 fistp	 DWORD PTR _retval$[ebp]

; 537  : 	}
; 538  : #else
; 539  : 	__asm__ __volatile__("fistpl %0"  : "=m" (retval) : "t" (x) : "st");
; 540  : #endif
; 541  : 	return retval;

  00011	8b 45 fc	 mov	 eax, DWORD PTR _retval$[ebp]

; 542  : }

  00014	8b e5		 mov	 esp, ebp
  00016	5d		 pop	 ebp
  00017	c3		 ret	 0
_lrint	ENDP
_TEXT	ENDS
; Function compile flags: /Ogtp
; File c:\users\philip\documents\github\mollenos\clib\include\math.h
;	COMDAT _rintl
_TEXT	SEGMENT
_retval$ = -8						; size = 8
_x$ = 8							; size = 8
_rintl	PROC						; COMDAT

; 516  : {

  00000	55		 push	 ebp
  00001	8b ec		 mov	 ebp, esp
  00003	83 ec 08	 sub	 esp, 8

; 517  : 	long double retval = 0.0l;

  00006	d9 ee		 fldz
  00008	dd 5d f8	 fstp	 QWORD PTR _retval$[ebp]

; 518  : #if defined(_MSC_VER)
; 519  : 	_asm {
; 520  : 		fld [x];

  0000b	dd 45 08	 fld	 QWORD PTR _x$[ebp]

; 521  : 		frndint;

  0000e	d9 fc		 frndint

; 522  : 		fstp [retval];

  00010	dd 5d f8	 fstp	 QWORD PTR _retval$[ebp]

; 523  : 	}
; 524  : #else
; 525  : 	__asm__ __volatile__("frndint;": "=t" (retval) : "0" (x));
; 526  : #endif
; 527  : 	return retval;

  00013	dd 45 f8	 fld	 QWORD PTR _retval$[ebp]

; 528  : }

  00016	8b e5		 mov	 esp, ebp
  00018	5d		 pop	 ebp
  00019	c3		 ret	 0
_rintl	ENDP
_TEXT	ENDS
; Function compile flags: /Ogtp
; File c:\users\philip\documents\github\mollenos\clib\include\math.h
;	COMDAT _rintf
_TEXT	SEGMENT
_retval$ = -4						; size = 4
_x$ = 8							; size = 4
_rintf	PROC						; COMDAT

; 501  : {

  00000	55		 push	 ebp
  00001	8b ec		 mov	 ebp, esp
  00003	51		 push	 ecx

; 502  : 	float retval = 0.0;

  00004	d9 ee		 fldz
  00006	d9 5d fc	 fstp	 DWORD PTR _retval$[ebp]

; 503  : #if defined(_MSC_VER)
; 504  : 	_asm {
; 505  : 		fld [x];

  00009	d9 45 08	 fld	 DWORD PTR _x$[ebp]

; 506  : 		frndint;

  0000c	d9 fc		 frndint

; 507  : 		fstp [retval];

  0000e	d9 5d fc	 fstp	 DWORD PTR _retval$[ebp]

; 508  : 	}
; 509  : #else
; 510  : 	__asm__ __volatile__("frndint;": "=t" (retval) : "0" (x));
; 511  : #endif
; 512  : 	return retval;

  00011	d9 45 fc	 fld	 DWORD PTR _retval$[ebp]

; 513  : }

  00014	8b e5		 mov	 esp, ebp
  00016	5d		 pop	 ebp
  00017	c3		 ret	 0
_rintf	ENDP
_TEXT	ENDS
; Function compile flags: /Ogtp
; File c:\users\philip\documents\github\mollenos\clib\include\math.h
;	COMDAT _rint
_TEXT	SEGMENT
_retval$ = -8						; size = 8
_x$ = 8							; size = 8
_rint	PROC						; COMDAT

; 486  : {

  00000	55		 push	 ebp
  00001	8b ec		 mov	 ebp, esp
  00003	83 ec 08	 sub	 esp, 8

; 487  : 	double retval = 0.0;

  00006	d9 ee		 fldz
  00008	dd 5d f8	 fstp	 QWORD PTR _retval$[ebp]

; 488  : #if defined(_MSC_VER)
; 489  : 	_asm {
; 490  : 		fld [x];

  0000b	dd 45 08	 fld	 QWORD PTR _x$[ebp]

; 491  : 		frndint;

  0000e	d9 fc		 frndint

; 492  : 		fstp [retval];

  00010	dd 5d f8	 fstp	 QWORD PTR _retval$[ebp]

; 493  : 	}
; 494  : #else
; 495  : 	__asm__ __volatile__("frndint;": "=t" (retval) : "0" (x));
; 496  : #endif
; 497  : 	return retval;

  00013	dd 45 f8	 fld	 QWORD PTR _retval$[ebp]

; 498  : }

  00016	8b e5		 mov	 esp, ebp
  00018	5d		 pop	 ebp
  00019	c3		 ret	 0
_rint	ENDP
_TEXT	ENDS
; Function compile flags: /Ogtp
; File c:\users\philip\documents\github\mollenos\clib\include\math.h
;	COMDAT _logbl
_TEXT	SEGMENT
_res$ = -8						; size = 8
_x$ = 8							; size = 8
_logbl	PROC						; COMDAT

; 389  : {

  00000	55		 push	 ebp
  00001	8b ec		 mov	 ebp, esp
  00003	83 ec 08	 sub	 esp, 8

; 390  : 	long double res = 0.0l;

  00006	d9 ee		 fldz
  00008	dd 5d f8	 fstp	 QWORD PTR _res$[ebp]

; 391  : #if defined(_MSC_VER)
; 392  : 	_asm {
; 393  : 		fld[x];

  0000b	dd 45 08	 fld	 QWORD PTR _x$[ebp]

; 394  : 		fxtract;

  0000e	d9 f4		 fxtract

; 395  : 		fstp[res];

  00010	dd 5d f8	 fstp	 QWORD PTR _res$[ebp]

; 396  : 	}
; 397  : #else
; 398  : 	__asm__ __volatile__("fxtract\n\t"
; 399  : 		"fstp	%%st" : "=t" (res) : "0" (x));
; 400  : #endif
; 401  : 	return res;

  00013	dd 45 f8	 fld	 QWORD PTR _res$[ebp]

; 402  : }

  00016	8b e5		 mov	 esp, ebp
  00018	5d		 pop	 ebp
  00019	c3		 ret	 0
_logbl	ENDP
_TEXT	ENDS
; Function compile flags: /Ogtp
; File c:\users\philip\documents\github\mollenos\clib\include\math.h
;	COMDAT _logbf
_TEXT	SEGMENT
_res$ = -4						; size = 4
_x$ = 8							; size = 4
_logbf	PROC						; COMDAT

; 373  : {

  00000	55		 push	 ebp
  00001	8b ec		 mov	 ebp, esp
  00003	51		 push	 ecx

; 374  : 	float res = 0.0F;

  00004	d9 ee		 fldz
  00006	d9 5d fc	 fstp	 DWORD PTR _res$[ebp]

; 375  : #if defined(_MSC_VER)
; 376  : 	_asm {
; 377  : 		fld[x];

  00009	d9 45 08	 fld	 DWORD PTR _x$[ebp]

; 378  : 		fxtract;

  0000c	d9 f4		 fxtract

; 379  : 		fstp[res];

  0000e	d9 5d fc	 fstp	 DWORD PTR _res$[ebp]

; 380  : 	}
; 381  : #else
; 382  : 	__asm__ __volatile__("fxtract\n\t"
; 383  : 		"fstp	%%st" : "=t" (res) : "0" (x));
; 384  : #endif
; 385  : 	return res;

  00011	d9 45 fc	 fld	 DWORD PTR _res$[ebp]

; 386  : }

  00014	8b e5		 mov	 esp, ebp
  00016	5d		 pop	 ebp
  00017	c3		 ret	 0
_logbf	ENDP
_TEXT	ENDS
; Function compile flags: /Ogtp
; File c:\users\philip\documents\github\mollenos\clib\include\math.h
;	COMDAT _logb
_TEXT	SEGMENT
_res$ = -8						; size = 8
_x$ = 8							; size = 8
_logb	PROC						; COMDAT

; 357  : {

  00000	55		 push	 ebp
  00001	8b ec		 mov	 ebp, esp
  00003	83 ec 08	 sub	 esp, 8

; 358  : 	double res = 0.0;

  00006	d9 ee		 fldz
  00008	dd 5d f8	 fstp	 QWORD PTR _res$[ebp]

; 359  : #if defined(_MSC_VER)
; 360  : 	_asm {
; 361  : 		fld [x];

  0000b	dd 45 08	 fld	 QWORD PTR _x$[ebp]

; 362  : 		fxtract;

  0000e	d9 f4		 fxtract

; 363  : 		fstp [res];

  00010	dd 5d f8	 fstp	 QWORD PTR _res$[ebp]

; 364  : 	}
; 365  : #else
; 366  : 	__asm__ __volatile__("fxtract\n\t"
; 367  : 		"fstp	%%st" : "=t" (res) : "0" (x));
; 368  : #endif
; 369  : 	return res;

  00013	dd 45 f8	 fld	 QWORD PTR _res$[ebp]

; 370  : }

  00016	8b e5		 mov	 esp, ebp
  00018	5d		 pop	 ebp
  00019	c3		 ret	 0
_logb	ENDP
_TEXT	ENDS
; Function compile flags: /Ogtp
; File c:\users\philip\documents\github\mollenos\clib\include\math.h
;	COMDAT ___signbitl
_TEXT	SEGMENT
_stw$ = -4						; size = 2
_x$ = 8							; size = 8
___signbitl PROC					; COMDAT

; 271  : __CRT_INLINE int __cdecl __signbitl(long double x) {

  00000	55		 push	 ebp
  00001	8b ec		 mov	 ebp, esp
  00003	51		 push	 ecx

; 272  : 	unsigned short stw;
; 273  : #if defined(_MSC_VER)
; 274  : 	_asm {
; 275  : 		fld [x];

  00004	dd 45 08	 fld	 QWORD PTR _x$[ebp]

; 276  : 		fxam;

  00007	d9 e5		 fxam

; 277  : 		fstsw ax;

  00009	9b df e0	 fstsw	 ax

; 278  : 		mov word ptr[stw], ax;

  0000c	66 89 45 fc	 mov	 WORD PTR _stw$[ebp], ax

; 279  : 	}
; 280  : #else
; 281  : 	__asm__ __volatile__("fxam; fstsw %%ax;": "=a" (stw) : "t" (x));
; 282  : #endif
; 283  : 	return stw & 0x0200;

  00010	0f b7 45 fc	 movzx	 eax, WORD PTR _stw$[ebp]
  00014	25 00 02 00 00	 and	 eax, 512		; 00000200H

; 284  : }

  00019	8b e5		 mov	 esp, ebp
  0001b	5d		 pop	 ebp
  0001c	c3		 ret	 0
___signbitl ENDP
_TEXT	ENDS
; Function compile flags: /Ogtp
; File c:\users\philip\documents\github\mollenos\clib\include\math.h
;	COMDAT ___signbitf
_TEXT	SEGMENT
_stw$ = -4						; size = 2
_x$ = 8							; size = 4
___signbitf PROC					; COMDAT

; 256  : __CRT_INLINE int __cdecl __signbitf(float x) {

  00000	55		 push	 ebp
  00001	8b ec		 mov	 ebp, esp
  00003	51		 push	 ecx

; 257  : 	unsigned short stw;
; 258  : #if defined(_MSC_VER)
; 259  : 	_asm {
; 260  : 		fld [x];

  00004	d9 45 08	 fld	 DWORD PTR _x$[ebp]

; 261  : 		fxam;

  00007	d9 e5		 fxam

; 262  : 		fstsw ax;

  00009	9b df e0	 fstsw	 ax

; 263  : 		mov word ptr[stw], ax;

  0000c	66 89 45 fc	 mov	 WORD PTR _stw$[ebp], ax

; 264  : 	}
; 265  : #else
; 266  : 	__asm__ __volatile__("fxam; fstsw %%ax;": "=a" (stw) : "t" (x));
; 267  : #endif
; 268  : 	return stw & 0x0200;

  00010	0f b7 45 fc	 movzx	 eax, WORD PTR _stw$[ebp]
  00014	25 00 02 00 00	 and	 eax, 512		; 00000200H

; 269  : }

  00019	8b e5		 mov	 esp, ebp
  0001b	5d		 pop	 ebp
  0001c	c3		 ret	 0
___signbitf ENDP
_TEXT	ENDS
; Function compile flags: /Ogtp
; File c:\users\philip\documents\github\mollenos\clib\include\math.h
;	COMDAT ___signbit
_TEXT	SEGMENT
_stw$ = -4						; size = 2
_x$ = 8							; size = 8
___signbit PROC						; COMDAT

; 241  : __CRT_INLINE int __cdecl __signbit(double x) {

  00000	55		 push	 ebp
  00001	8b ec		 mov	 ebp, esp
  00003	51		 push	 ecx

; 242  : 	unsigned short stw;
; 243  : #if defined(_MSC_VER)
; 244  : 	_asm {
; 245  : 		fld [x];

  00004	dd 45 08	 fld	 QWORD PTR _x$[ebp]

; 246  : 		fxam;

  00007	d9 e5		 fxam

; 247  : 		fstsw ax;

  00009	9b df e0	 fstsw	 ax

; 248  : 		mov word ptr[stw], ax;

  0000c	66 89 45 fc	 mov	 WORD PTR _stw$[ebp], ax

; 249  : 	}
; 250  : #else
; 251  : 	__asm__ __volatile__("fxam; fstsw %%ax;": "=a" (stw) : "t" (x));
; 252  : #endif
; 253  : 	return stw & 0x0200;

  00010	0f b7 45 fc	 movzx	 eax, WORD PTR _stw$[ebp]
  00014	25 00 02 00 00	 and	 eax, 512		; 00000200H

; 254  : }

  00019	8b e5		 mov	 esp, ebp
  0001b	5d		 pop	 ebp
  0001c	c3		 ret	 0
___signbit ENDP
_TEXT	ENDS
; Function compile flags: /Ogtp
; File c:\users\philip\documents\github\mollenos\clib\include\math.h
;	COMDAT ___isnanl
_TEXT	SEGMENT
_sw$ = -4						; size = 2
__x$ = 8						; size = 8
___isnanl PROC						; COMDAT

; 211  : {

  00000	55		 push	 ebp
  00001	8b ec		 mov	 ebp, esp
  00003	51		 push	 ecx

; 212  : 	unsigned short sw;
; 213  : #if defined(_MSC_VER)
; 214  : 	_asm {
; 215  : 		fld [_x];

  00004	dd 45 08	 fld	 QWORD PTR __x$[ebp]

; 216  : 		fxam;

  00007	d9 e5		 fxam

; 217  : 		fstsw ax;

  00009	9b df e0	 fstsw	 ax

; 218  : 		mov word ptr[sw], ax;

  0000c	66 89 45 fc	 mov	 WORD PTR _sw$[ebp], ax

; 219  : 	}
; 220  : #else
; 221  : 	__asm__ __volatile__("fxam;"
; 222  : 		"fstsw %%ax": "=a" (sw) : "t" (_x));
; 223  : #endif
; 224  : 	return (sw & (FP_NAN | FP_NORMAL | FP_INFINITE | FP_ZERO | FP_SUBNORMAL))
; 225  : 		== FP_NAN;

  00010	0f b7 4d fc	 movzx	 ecx, WORD PTR _sw$[ebp]
  00014	33 c0		 xor	 eax, eax
  00016	81 e1 00 45 00
	00		 and	 ecx, 17664		; 00004500H
  0001c	81 f9 00 01 00
	00		 cmp	 ecx, 256		; 00000100H
  00022	0f 94 c0	 sete	 al

; 226  : }

  00025	8b e5		 mov	 esp, ebp
  00027	5d		 pop	 ebp
  00028	c3		 ret	 0
___isnanl ENDP
_TEXT	ENDS
; Function compile flags: /Ogtp
; File c:\users\philip\documents\github\mollenos\clib\include\math.h
;	COMDAT ___isnanf
_TEXT	SEGMENT
_sw$ = -4						; size = 2
__x$ = 8						; size = 4
___isnanf PROC						; COMDAT

; 193  : {

  00000	55		 push	 ebp
  00001	8b ec		 mov	 ebp, esp
  00003	51		 push	 ecx

; 194  : 	unsigned short sw;
; 195  : #if defined(_MSC_VER)
; 196  : 	_asm {
; 197  : 		fld [_x];

  00004	d9 45 08	 fld	 DWORD PTR __x$[ebp]

; 198  : 		fxam;

  00007	d9 e5		 fxam

; 199  : 		fstsw ax;

  00009	9b df e0	 fstsw	 ax

; 200  : 		mov word ptr[sw], ax;

  0000c	66 89 45 fc	 mov	 WORD PTR _sw$[ebp], ax

; 201  : 	}
; 202  : #else
; 203  : 	__asm__ __volatile__("fxam;"
; 204  : 		"fstsw %%ax": "=a" (sw) : "t" (_x));
; 205  : #endif
; 206  : 	return (sw & (FP_NAN | FP_NORMAL | FP_INFINITE | FP_ZERO | FP_SUBNORMAL))
; 207  : 		== FP_NAN;

  00010	0f b7 4d fc	 movzx	 ecx, WORD PTR _sw$[ebp]
  00014	33 c0		 xor	 eax, eax
  00016	81 e1 00 45 00
	00		 and	 ecx, 17664		; 00004500H
  0001c	81 f9 00 01 00
	00		 cmp	 ecx, 256		; 00000100H
  00022	0f 94 c0	 sete	 al

; 208  : }

  00025	8b e5		 mov	 esp, ebp
  00027	5d		 pop	 ebp
  00028	c3		 ret	 0
___isnanf ENDP
_TEXT	ENDS
; Function compile flags: /Ogtp
; File c:\users\philip\documents\github\mollenos\clib\include\math.h
;	COMDAT ___isnan
_TEXT	SEGMENT
_sw$ = -4						; size = 2
__x$ = 8						; size = 8
___isnan PROC						; COMDAT

; 175  : {

  00000	55		 push	 ebp
  00001	8b ec		 mov	 ebp, esp
  00003	51		 push	 ecx

; 176  : 	unsigned short sw;
; 177  : #if defined(_MSC_VER)
; 178  : 	_asm {
; 179  : 		fld [_x];

  00004	dd 45 08	 fld	 QWORD PTR __x$[ebp]

; 180  : 		fxam;

  00007	d9 e5		 fxam

; 181  : 		fstsw ax;

  00009	9b df e0	 fstsw	 ax

; 182  : 		mov word ptr[sw], ax;

  0000c	66 89 45 fc	 mov	 WORD PTR _sw$[ebp], ax

; 183  : 	}
; 184  : #else
; 185  : 	__asm__ __volatile__("fxam;"
; 186  : 		"fstsw %%ax": "=a" (sw) : "t" (_x));
; 187  : #endif
; 188  : 	return (sw & (FP_NAN | FP_NORMAL | FP_INFINITE | FP_ZERO | FP_SUBNORMAL))
; 189  : 		== FP_NAN;

  00010	0f b7 4d fc	 movzx	 ecx, WORD PTR _sw$[ebp]
  00014	33 c0		 xor	 eax, eax
  00016	81 e1 00 45 00
	00		 and	 ecx, 17664		; 00004500H
  0001c	81 f9 00 01 00
	00		 cmp	 ecx, 256		; 00000100H
  00022	0f 94 c0	 sete	 al

; 190  : }

  00025	8b e5		 mov	 esp, ebp
  00027	5d		 pop	 ebp
  00028	c3		 ret	 0
___isnan ENDP
_TEXT	ENDS
; Function compile flags: /Ogtp
; File c:\users\philip\documents\github\mollenos\clib\include\math.h
;	COMDAT ___fpclassify
_TEXT	SEGMENT
_sw$ = -4						; size = 2
_x$ = 8							; size = 8
___fpclassify PROC					; COMDAT

; 125  : __CRT_INLINE int __cdecl __fpclassify(double x) {

  00000	55		 push	 ebp
  00001	8b ec		 mov	 ebp, esp
  00003	51		 push	 ecx

; 126  : 	unsigned short sw;
; 127  : #if defined(_MSC_VER)
; 128  : 	_asm {
; 129  : 		fld [x];

  00004	dd 45 08	 fld	 QWORD PTR _x$[ebp]

; 130  : 		fxam;

  00007	d9 e5		 fxam

; 131  : 		fstsw ax;

  00009	9b df e0	 fstsw	 ax

; 132  : 		mov word ptr[sw], ax;

  0000c	66 89 45 fc	 mov	 WORD PTR _sw$[ebp], ax

; 133  : 	}
; 134  : #else
; 135  : 	__asm__ __volatile__("fxam; fstsw %%ax;" : "=a" (sw) : "t" (x));
; 136  : #endif
; 137  : 	return sw & (FP_NAN | FP_NORMAL | FP_ZERO);

  00010	0f b7 45 fc	 movzx	 eax, WORD PTR _sw$[ebp]
  00014	25 00 45 00 00	 and	 eax, 17664		; 00004500H

; 138  : }

  00019	8b e5		 mov	 esp, ebp
  0001b	5d		 pop	 ebp
  0001c	c3		 ret	 0
___fpclassify ENDP
_TEXT	ENDS
; Function compile flags: /Ogtp
; File c:\users\philip\documents\github\mollenos\clib\include\math.h
;	COMDAT ___fpclassifyf
_TEXT	SEGMENT
_sw$ = -4						; size = 2
_x$ = 8							; size = 4
___fpclassifyf PROC					; COMDAT

; 139  : __CRT_INLINE int __cdecl __fpclassifyf(float x) {

  00000	55		 push	 ebp
  00001	8b ec		 mov	 ebp, esp
  00003	51		 push	 ecx

; 140  : 	unsigned short sw;
; 141  : #if defined(_MSC_VER)
; 142  : 	_asm {
; 143  : 		fld [x];

  00004	d9 45 08	 fld	 DWORD PTR _x$[ebp]

; 144  : 		fxam;

  00007	d9 e5		 fxam

; 145  : 		fstsw ax;

  00009	9b df e0	 fstsw	 ax

; 146  : 		mov word ptr[sw], ax;

  0000c	66 89 45 fc	 mov	 WORD PTR _sw$[ebp], ax

; 147  : 	}
; 148  : #else
; 149  : 	__asm__ __volatile__("fxam; fstsw %%ax;" : "=a" (sw) : "t" (x));
; 150  : #endif
; 151  : 	return sw & (FP_NAN | FP_NORMAL | FP_ZERO);

  00010	0f b7 45 fc	 movzx	 eax, WORD PTR _sw$[ebp]
  00014	25 00 45 00 00	 and	 eax, 17664		; 00004500H

; 152  : }

  00019	8b e5		 mov	 esp, ebp
  0001b	5d		 pop	 ebp
  0001c	c3		 ret	 0
___fpclassifyf ENDP
_TEXT	ENDS
; Function compile flags: /Ogtp
; File c:\users\philip\documents\github\mollenos\clib\include\math.h
;	COMDAT ___fpclassifyl
_TEXT	SEGMENT
_sw$ = -4						; size = 2
_x$ = 8							; size = 8
___fpclassifyl PROC					; COMDAT

; 111  : __CRT_INLINE int __cdecl __fpclassifyl(long double x) {

  00000	55		 push	 ebp
  00001	8b ec		 mov	 ebp, esp
  00003	51		 push	 ecx

; 112  : 	unsigned short sw;
; 113  : #if defined(_MSC_VER)
; 114  : 	_asm {
; 115  : 		fld [x];

  00004	dd 45 08	 fld	 QWORD PTR _x$[ebp]

; 116  : 		fxam;

  00007	d9 e5		 fxam

; 117  : 		fstsw ax;

  00009	9b df e0	 fstsw	 ax

; 118  : 		mov word ptr [sw], ax;

  0000c	66 89 45 fc	 mov	 WORD PTR _sw$[ebp], ax

; 119  : 	}
; 120  : #else
; 121  : 	__asm__ __volatile__("fxam; fstsw %%ax;" : "=a" (sw) : "t" (x));
; 122  : #endif
; 123  : 	return sw & (FP_NAN | FP_NORMAL | FP_ZERO);

  00010	0f b7 45 fc	 movzx	 eax, WORD PTR _sw$[ebp]
  00014	25 00 45 00 00	 and	 eax, 17664		; 00004500H

; 124  : }

  00019	8b e5		 mov	 esp, ebp
  0001b	5d		 pop	 ebp
  0001c	c3		 ret	 0
___fpclassifyl ENDP
_TEXT	ENDS
END
