; Listing generated by Microsoft (R) Optimizing Compiler Version 16.00.40219.01 

	TITLE	C:\Users\Phail\Documents\GitHub\MollenOS\clib\src\errno\errstrings.c
	.686P
	.XMM
	include listing.inc
	.model	flat

INCLUDELIB MSVCRT
INCLUDELIB OLDNAMES

PUBLIC	__errstrings
_BSS	SEGMENT
$SG1473	DB	01H DUP (?)
$SG1468	DB	01H DUP (?)
$SG1467	DB	01H DUP (?)
$SG1466	DB	01H DUP (?)
$SG1465	DB	01H DUP (?)
$SG1464	DB	01H DUP (?)
$SG1461	DB	01H DUP (?)
_BSS	ENDS
_DATA	SEGMENT
$SG1353	DB	'Not super-user', 00H
	ORG $+1
$SG1354	DB	'No such file or directory', 00H
	ORG $+2
$SG1355	DB	'No such process', 00H
$SG1356	DB	'Interrupted system call', 00H
$SG1357	DB	'I/O error', 00H
	ORG $+2
$SG1358	DB	'No such device or address', 00H
	ORG $+2
$SG1359	DB	'Arg list too long', 00H
	ORG $+2
$SG1360	DB	'Exec format error', 00H
	ORG $+2
$SG1361	DB	'Bad file number', 00H
$SG1362	DB	'No children', 00H
$SG1363	DB	'No more processes', 00H
	ORG $+2
$SG1364	DB	'Not enough core', 00H
$SG1365	DB	'Permission denied', 00H
	ORG $+2
$SG1366	DB	'Bad address', 00H
$SG1367	DB	'Block device required', 00H
	ORG $+2
$SG1368	DB	'Mount device busy', 00H
	ORG $+2
$SG1369	DB	'File exists', 00H
$SG1370	DB	'Cross-device link', 00H
	ORG $+2
$SG1371	DB	'No such device', 00H
	ORG $+1
$SG1372	DB	'Not a directory', 00H
$SG1373	DB	'Is a directory', 00H
	ORG $+1
$SG1374	DB	'Invalid argument', 00H
	ORG $+3
$SG1375	DB	'Too many open files in system', 00H
	ORG $+2
$SG1376	DB	'Too many open files', 00H
$SG1377	DB	'Not a typewriter', 00H
	ORG $+3
$SG1378	DB	'Text file busy', 00H
	ORG $+1
$SG1379	DB	'File too large', 00H
	ORG $+1
$SG1380	DB	'No space left on device', 00H
$SG1381	DB	'Illegal seek', 00H
	ORG $+3
$SG1382	DB	'Read only file system', 00H
	ORG $+2
$SG1383	DB	'Too many links', 00H
	ORG $+1
$SG1384	DB	'Broken pipe', 00H
$SG1385	DB	'Math arg out of domain of func', 00H
	ORG $+1
$SG1386	DB	'Math result not representable', 00H
	ORG $+2
$SG1387	DB	'No message of desired type', 00H
	ORG $+1
$SG1388	DB	'Identifier removed', 00H
	ORG $+1
$SG1389	DB	'Channel number out of range', 00H
$SG1390	DB	'Level 2 not synchronized', 00H
	ORG $+3
$SG1391	DB	'Level 3 halted', 00H
	ORG $+1
$SG1392	DB	'Level 3 reset', 00H
	ORG $+2
$SG1393	DB	'Link number out of range', 00H
	ORG $+3
$SG1394	DB	'Protocol driver not attached', 00H
	ORG $+3
$SG1395	DB	'No CSI structure available', 00H
	ORG $+1
$SG1396	DB	'Level 2 halted', 00H
	ORG $+1
$SG1397	DB	'Deadlock condition', 00H
	ORG $+1
$SG1398	DB	'No record locks available', 00H
	ORG $+2
$SG1399	DB	'Invalid exchange', 00H
	ORG $+3
$SG1400	DB	'Invalid request descriptor', 00H
	ORG $+1
$SG1401	DB	'Exchange full', 00H
	ORG $+2
$SG1402	DB	'No anode', 00H
	ORG $+3
$SG1403	DB	'Invalid request code', 00H
	ORG $+3
$SG1404	DB	'Invalid slot', 00H
	ORG $+3
$SG1405	DB	'File locking deadlock error', 00H
$SG1406	DB	'Bad font file fmt', 00H
	ORG $+2
$SG1407	DB	'Device not a stream', 00H
$SG1408	DB	'No data (for no delay io)', 00H
	ORG $+2
$SG1409	DB	'Timer expired', 00H
	ORG $+2
$SG1410	DB	'Out of streams resources', 00H
	ORG $+3
$SG1411	DB	'Machine is not on the network', 00H
	ORG $+2
$SG1412	DB	'Package not installed', 00H
	ORG $+2
$SG1413	DB	'The object is remote', 00H
	ORG $+3
$SG1414	DB	'The link has been severed', 00H
	ORG $+2
$SG1415	DB	'Advertise error', 00H
$SG1416	DB	'Srmount error', 00H
	ORG $+2
$SG1417	DB	'Communication error on send', 00H
$SG1418	DB	'Protocol error', 00H
	ORG $+1
$SG1419	DB	'Multihop attempted', 00H
	ORG $+1
$SG1420	DB	'Inode is remote (not really error)', 00H
	ORG $+1
$SG1421	DB	'Cross mount point (not really error)', 00H
	ORG $+3
$SG1422	DB	'Trying to read unreadable message', 00H
	ORG $+2
$SG1423	DB	'Inappropriate file type or format', 00H
	ORG $+2
$SG1424	DB	'Given log. name not unique', 00H
	ORG $+1
$SG1425	DB	'f.d. invalid for this operation', 00H
$SG1426	DB	'Remote address changed', 00H
	ORG $+1
$SG1427	DB	'Can''t access a needed shared lib', 00H
	ORG $+3
$SG1428	DB	'Accessing a corrupted shared lib', 00H
	ORG $+3
$SG1429	DB	'.lib section in a.out corrupted', 00H
$SG1430	DB	'Attempting to link in too many libs', 00H
$SG1431	DB	'Attempting to exec a shared library', 00H
$SG1432	DB	'Function not implemented', 00H
	ORG $+3
$SG1433	DB	'No more files', 00H
	ORG $+2
$SG1434	DB	'Directory not empty', 00H
$SG1435	DB	'File or path name too long', 00H
	ORG $+1
$SG1436	DB	'Too many symbolic links', 00H
$SG1437	DB	'Operation not supported on transport endpoint', 00H
	ORG $+2
$SG1438	DB	'Protocol family not supported', 00H
	ORG $+2
$SG1439	DB	'Connection reset by peer', 00H
	ORG $+3
$SG1440	DB	'No buffer space available', 00H
	ORG $+2
$SG1441	DB	'Address family not supported by protocol family', 00H
$SG1442	DB	'Protocol wrong type for socket', 00H
	ORG $+1
$SG1443	DB	'Socket operation on non-socket', 00H
	ORG $+1
$SG1444	DB	'Protocol not available', 00H
	ORG $+1
$SG1445	DB	'Can''t send after socket shutdown', 00H
	ORG $+3
$SG1446	DB	'Connection refused', 00H
	ORG $+1
$SG1447	DB	'Address already in use', 00H
	ORG $+1
$SG1448	DB	'Connection aborted', 00H
	ORG $+1
$SG1449	DB	'Network is unreachable', 00H
	ORG $+1
$SG1450	DB	'Network interface is not configured', 00H
$SG1451	DB	'Connection timed out', 00H
	ORG $+3
$SG1452	DB	'Host is down', 00H
	ORG $+3
$SG1453	DB	'Host is unreachable', 00H
$SG1454	DB	'Connection already in progress', 00H
	ORG $+1
$SG1455	DB	'Socket already connected', 00H
	ORG $+3
$SG1456	DB	'Destination address required', 00H
	ORG $+3
$SG1457	DB	'Message too long', 00H
	ORG $+3
$SG1458	DB	'Unknown protocol', 00H
	ORG $+3
$SG1459	DB	'Socket type not supported', 00H
	ORG $+2
$SG1460	DB	'Address not available', 00H
	ORG $+2
$SG1462	DB	'Socket is already connected', 00H
$SG1463	DB	'Socket is not connected', 00H
$SG1469	DB	'Not supported', 00H
	ORG $+2
$SG1470	DB	'No medium (in tape drive)', 00H
	ORG $+2
$SG1471	DB	'No such host or network path', 00H
	ORG $+3
$SG1472	DB	'Filename exists with different case', 00H
$SG1474	DB	'Value too large for defined data type', 00H
	ORG $+2
$SG1475	DB	'Operation canceled', 00H
	ORG $+1
$SG1476	DB	'State not recoverable', 00H
	ORG $+2
$SG1477	DB	'Previous owner died', 00H
$SG1478	DB	'Streams pipe error', 00H
	ORG $+1
$SG1479	DB	'Operation would block', 00H
	ORG $+6
__errstrings DD	FLAT:$SG1353
	DD	FLAT:$SG1354
	DD	FLAT:$SG1355
	DD	FLAT:$SG1356
	DD	FLAT:$SG1357
	DD	FLAT:$SG1358
	DD	FLAT:$SG1359
	DD	FLAT:$SG1360
	DD	FLAT:$SG1361
	DD	FLAT:$SG1362
	DD	FLAT:$SG1363
	DD	FLAT:$SG1364
	DD	FLAT:$SG1365
	DD	FLAT:$SG1366
	DD	FLAT:$SG1367
	DD	FLAT:$SG1368
	DD	FLAT:$SG1369
	DD	FLAT:$SG1370
	DD	FLAT:$SG1371
	DD	FLAT:$SG1372
	DD	FLAT:$SG1373
	DD	FLAT:$SG1374
	DD	FLAT:$SG1375
	DD	FLAT:$SG1376
	DD	FLAT:$SG1377
	DD	FLAT:$SG1378
	DD	FLAT:$SG1379
	DD	FLAT:$SG1380
	DD	FLAT:$SG1381
	DD	FLAT:$SG1382
	DD	FLAT:$SG1383
	DD	FLAT:$SG1384
	DD	FLAT:$SG1385
	DD	FLAT:$SG1386
	DD	FLAT:$SG1387
	DD	FLAT:$SG1388
	DD	FLAT:$SG1389
	DD	FLAT:$SG1390
	DD	FLAT:$SG1391
	DD	FLAT:$SG1392
	DD	FLAT:$SG1393
	DD	FLAT:$SG1394
	DD	FLAT:$SG1395
	DD	FLAT:$SG1396
	DD	FLAT:$SG1397
	DD	FLAT:$SG1398
	DD	FLAT:$SG1399
	DD	FLAT:$SG1400
	DD	FLAT:$SG1401
	DD	FLAT:$SG1402
	DD	FLAT:$SG1403
	DD	FLAT:$SG1404
	DD	FLAT:$SG1405
	DD	FLAT:$SG1406
	DD	FLAT:$SG1407
	DD	FLAT:$SG1408
	DD	FLAT:$SG1409
	DD	FLAT:$SG1410
	DD	FLAT:$SG1411
	DD	FLAT:$SG1412
	DD	FLAT:$SG1413
	DD	FLAT:$SG1414
	DD	FLAT:$SG1415
	DD	FLAT:$SG1416
	DD	FLAT:$SG1417
	DD	FLAT:$SG1418
	DD	FLAT:$SG1419
	DD	FLAT:$SG1420
	DD	FLAT:$SG1421
	DD	FLAT:$SG1422
	DD	FLAT:$SG1423
	DD	FLAT:$SG1424
	DD	FLAT:$SG1425
	DD	FLAT:$SG1426
	DD	FLAT:$SG1427
	DD	FLAT:$SG1428
	DD	FLAT:$SG1429
	DD	FLAT:$SG1430
	DD	FLAT:$SG1431
	DD	FLAT:$SG1432
	DD	FLAT:$SG1433
	DD	FLAT:$SG1434
	DD	FLAT:$SG1435
	DD	FLAT:$SG1436
	DD	FLAT:$SG1437
	DD	FLAT:$SG1438
	DD	FLAT:$SG1439
	DD	FLAT:$SG1440
	DD	FLAT:$SG1441
	DD	FLAT:$SG1442
	DD	FLAT:$SG1443
	DD	FLAT:$SG1444
	DD	FLAT:$SG1445
	DD	FLAT:$SG1446
	DD	FLAT:$SG1447
	DD	FLAT:$SG1448
	DD	FLAT:$SG1449
	DD	FLAT:$SG1450
	DD	FLAT:$SG1451
	DD	FLAT:$SG1452
	DD	FLAT:$SG1453
	DD	FLAT:$SG1454
	DD	FLAT:$SG1455
	DD	FLAT:$SG1456
	DD	FLAT:$SG1457
	DD	FLAT:$SG1458
	DD	FLAT:$SG1459
	DD	FLAT:$SG1460
	DD	FLAT:$SG1461
	DD	FLAT:$SG1462
	DD	FLAT:$SG1463
	DD	FLAT:$SG1464
	DD	FLAT:$SG1465
	DD	FLAT:$SG1466
	DD	FLAT:$SG1467
	DD	FLAT:$SG1468
	DD	FLAT:$SG1469
	DD	FLAT:$SG1470
	DD	FLAT:$SG1471
	DD	FLAT:$SG1472
	DD	FLAT:$SG1473
	DD	FLAT:$SG1474
	DD	FLAT:$SG1475
	DD	FLAT:$SG1476
	DD	FLAT:$SG1477
	DD	FLAT:$SG1478
	DD	FLAT:$SG1479
_DATA	ENDS
END
