; Listing generated by Microsoft (R) Optimizing Compiler Version 18.00.40629.0 

	TITLE	C:\Users\Philip\Documents\GitHub\MollenOS\clib\src\math\i386\ldexp.c
	.686P
	.XMM
	include listing.inc
	.model	flat

INCLUDELIB MSVCRT
INCLUDELIB OLDNAMES

_DATA	SEGMENT
COMM	__errno:DWORD
_DATA	ENDS
PUBLIC	_ldexp
EXTRN	__isnan:PROC
EXTRN	___errno:PROC
EXTRN	__fltused:DWORD
; Function compile flags: /Ogtp
; File c:\users\philip\documents\github\mollenos\clib\src\math\i386\ldexp.c
;	COMDAT _ldexp
_TEXT	SEGMENT
_result$ = -16						; size = 8
___dy$ = -8						; size = 8
_value$ = 8						; size = 8
_exp$ = 16						; size = 4
_ldexp	PROC						; COMDAT

; 27   : {

  00000	55		 push	 ebp
  00001	8b ec		 mov	 ebp, esp
  00003	83 ec 10	 sub	 esp, 16			; 00000010H

; 28   :     register double result;
; 29   : #ifndef __GNUC__
; 30   :     register double __dy = (double)exp;

  00006	db 45 10	 fild	 DWORD PTR _exp$[ebp]

; 31   : #endif
; 32   : 
; 33   :     /* Check for value correctness
; 34   :      * and set errno if required
; 35   :      */
; 36   :     if (_isnan(value))

  00009	83 ec 08	 sub	 esp, 8
  0000c	dd 5d f8	 fstp	 QWORD PTR ___dy$[ebp]
  0000f	dd 45 08	 fld	 QWORD PTR _value$[ebp]
  00012	dd 1c 24	 fstp	 QWORD PTR [esp]
  00015	e8 00 00 00 00	 call	 __isnan
  0001a	83 c4 08	 add	 esp, 8
  0001d	85 c0		 test	 eax, eax
  0001f	74 0b		 je	 SHORT $LN1@ldexp

; 37   :     {
; 38   :         errno = EDOM;

  00021	e8 00 00 00 00	 call	 ___errno
  00026	c7 00 21 00 00
	00		 mov	 DWORD PTR [eax], 33	; 00000021H
$LN1@ldexp:

; 39   :     }
; 40   : 
; 41   : #ifdef __GNUC__
; 42   :     asm ("fscale"
; 43   :          : "=t" (result)
; 44   :          : "0" (value), "u" ((double)exp)
; 45   :          : "1");
; 46   : #else /* !__GNUC__ */
; 47   :     __asm
; 48   :     {
; 49   :         fld __dy

  0002c	dd 45 f8	 fld	 QWORD PTR ___dy$[ebp]

; 50   :         fld value

  0002f	dd 45 08	 fld	 QWORD PTR _value$[ebp]

; 51   :         fscale

  00032	d9 fd		 fscale

; 52   :         fstp result

  00034	dd 5d f0	 fstp	 QWORD PTR _result$[ebp]

; 53   :     }
; 54   : #endif /* !__GNUC__ */
; 55   :     return result;

  00037	dd 45 f0	 fld	 QWORD PTR _result$[ebp]

; 56   : }

  0003a	8b e5		 mov	 esp, ebp
  0003c	5d		 pop	 ebp
  0003d	c3		 ret	 0
_ldexp	ENDP
_TEXT	ENDS
END
