; Listing generated by Microsoft (R) Optimizing Compiler Version 18.00.40629.0 

	TITLE	C:\Users\Philip\Documents\GitHub\MollenOS\clib\src\string\strcoll.c
	.686P
	.XMM
	include listing.inc
	.model	flat

INCLUDELIB MSVCRT
INCLUDELIB OLDNAMES

PUBLIC	_strcoll
; Function compile flags: /Ogtp
; File c:\users\philip\documents\github\mollenos\clib\src\string\strcoll.c
;	COMDAT _strcoll
_TEXT	SEGMENT
_str1$ = 8						; size = 4
_str2$ = 12						; size = 4
_strcoll PROC						; COMDAT

; 9    : {

  00000	55		 push	 ebp
  00001	8b ec		 mov	 ebp, esp

; 10   : 	return strcmp(str1, str2);

  00003	8b 4d 0c	 mov	 ecx, DWORD PTR _str2$[ebp]
  00006	8b 45 08	 mov	 eax, DWORD PTR _str1$[ebp]
  00009	8d a4 24 00 00
	00 00		 npad	 7
$LL3@strcoll:
  00010	8a 10		 mov	 dl, BYTE PTR [eax]
  00012	3a 11		 cmp	 dl, BYTE PTR [ecx]
  00014	75 1a		 jne	 SHORT $LN4@strcoll
  00016	84 d2		 test	 dl, dl
  00018	74 12		 je	 SHORT $LN5@strcoll
  0001a	8a 50 01	 mov	 dl, BYTE PTR [eax+1]
  0001d	3a 51 01	 cmp	 dl, BYTE PTR [ecx+1]
  00020	75 0e		 jne	 SHORT $LN4@strcoll
  00022	83 c0 02	 add	 eax, 2
  00025	83 c1 02	 add	 ecx, 2
  00028	84 d2		 test	 dl, dl
  0002a	75 e4		 jne	 SHORT $LL3@strcoll
$LN5@strcoll:
  0002c	33 c0		 xor	 eax, eax

; 11   : }

  0002e	5d		 pop	 ebp
  0002f	c3		 ret	 0
$LN4@strcoll:

; 10   : 	return strcmp(str1, str2);

  00030	1b c0		 sbb	 eax, eax
  00032	83 c8 01	 or	 eax, 1

; 11   : }

  00035	5d		 pop	 ebp
  00036	c3		 ret	 0
_strcoll ENDP
_TEXT	ENDS
END
