; Listing generated by Microsoft (R) Optimizing Compiler Version 16.00.40219.01 

	TITLE	C:\Users\Phail\Documents\GitHub\MollenOS\clib\src\string\strspn.c
	.686P
	.XMM
	include listing.inc
	.model	flat

INCLUDELIB MSVCRT
INCLUDELIB OLDNAMES

PUBLIC	_strspn
; Function compile flags: /Ogtp
; File c:\users\phail\documents\github\mollenos\clib\src\string\strspn.c
;	COMDAT _strspn
_TEXT	SEGMENT
_s$ = 8							; size = 4
_s1$ = 8						; size = 4
_s2$ = 12						; size = 4
_strspn	PROC						; COMDAT

; 39   : {

  00000	55		 push	 ebp
  00001	8b ec		 mov	 ebp, esp
  00003	53		 push	 ebx
  00004	56		 push	 esi

; 40   : 	const char *s = s1;

  00005	8b 75 08	 mov	 esi, DWORD PTR _s1$[ebp]

; 41   : 	const char *c;
; 42   : 
; 43   : 	while (*s1)

  00008	8a 1e		 mov	 bl, BYTE PTR [esi]
  0000a	89 75 08	 mov	 DWORD PTR _s$[ebp], esi
  0000d	84 db		 test	 bl, bl
  0000f	74 33		 je	 SHORT $LN18@strspn
  00011	57		 push	 edi
  00012	8b 7d 0c	 mov	 edi, DWORD PTR _s2$[ebp]
  00015	8a 07		 mov	 al, BYTE PTR [edi]
$LL7@strspn:

; 44   : 	{
; 45   : 		for (c = s2; *c; c++)

  00017	8b d7		 mov	 edx, edi
  00019	84 c0		 test	 al, al
  0001b	74 19		 je	 SHORT $LN17@strspn
  0001d	8a c8		 mov	 cl, al
  0001f	90		 npad	 1
$LL5@strspn:

; 46   : 		{
; 47   : 			if (*s1 == *c)

  00020	3a d9		 cmp	 bl, cl
  00022	74 12		 je	 SHORT $LN17@strspn

; 44   : 	{
; 45   : 		for (c = s2; *c; c++)

  00024	8a 4a 01	 mov	 cl, BYTE PTR [edx+1]
  00027	42		 inc	 edx
  00028	84 c9		 test	 cl, cl
  0002a	75 f4		 jne	 SHORT $LL5@strspn

; 55   : 	}
; 56   : 
; 57   : 	return s1 - s;

  0002c	5f		 pop	 edi
  0002d	8b c6		 mov	 eax, esi
  0002f	2b 45 08	 sub	 eax, DWORD PTR _s$[ebp]
  00032	5e		 pop	 esi
  00033	5b		 pop	 ebx

; 58   : }

  00034	5d		 pop	 ebp
  00035	c3		 ret	 0
$LN17@strspn:

; 48   : 				break;
; 49   : 		}
; 50   : 
; 51   : 		if (*c == '\0')

  00036	80 3a 00	 cmp	 BYTE PTR [edx], 0
  00039	74 08		 je	 SHORT $LN19@strspn

; 52   : 			break;
; 53   : 		
; 54   : 		s1++;

  0003b	8a 5e 01	 mov	 bl, BYTE PTR [esi+1]
  0003e	46		 inc	 esi
  0003f	84 db		 test	 bl, bl
  00041	75 d4		 jne	 SHORT $LL7@strspn
$LN19@strspn:
  00043	5f		 pop	 edi
$LN18@strspn:

; 55   : 	}
; 56   : 
; 57   : 	return s1 - s;

  00044	8b c6		 mov	 eax, esi
  00046	2b 45 08	 sub	 eax, DWORD PTR _s$[ebp]
  00049	5e		 pop	 esi
  0004a	5b		 pop	 ebx

; 58   : }

  0004b	5d		 pop	 ebp
  0004c	c3		 ret	 0
_strspn	ENDP
_TEXT	ENDS
END
