; Listing generated by Microsoft (R) Optimizing Compiler Version 18.00.30501.0 

	TITLE	C:\Users\Phail\Documents\GitHub\MollenOS\clib\src\string\strtof.c
	.686P
	.XMM
	include listing.inc
	.model	flat

INCLUDELIB MSVCRT
INCLUDELIB OLDNAMES

PUBLIC	_strtof
EXTRN	_strtod:PROC
EXTRN	__fltused:DWORD
; Function compile flags: /Ogtp
; File c:\users\phail\documents\github\mollenos\clib\src\string\strtof.c
;	COMDAT _strtof
_TEXT	SEGMENT
tv73 = -8						; size = 8
tv75 = -4						; size = 4
_s$ = 8							; size = 4
_sret$ = 12						; size = 4
_strtof	PROC						; COMDAT

; 10   : {

  00000	55		 push	 ebp
  00001	8b ec		 mov	 ebp, esp
  00003	83 ec 08	 sub	 esp, 8

; 11   : 	double dret = strtod(s, sret);

  00006	ff 75 0c	 push	 DWORD PTR _sret$[ebp]
  00009	ff 75 08	 push	 DWORD PTR _s$[ebp]
  0000c	e8 00 00 00 00	 call	 _strtod

; 12   : 	float result = (float)dret;

  00011	dd 5d f8	 fstp	 QWORD PTR tv73[ebp]
  00014	f2 0f 10 45 f8	 movsd	 xmm0, QWORD PTR tv73[ebp]
  00019	83 c4 08	 add	 esp, 8
  0001c	66 0f 5a c0	 cvtpd2ps xmm0, xmm0

; 13   : 	return result;

  00020	f3 0f 11 45 fc	 movss	 DWORD PTR tv75[ebp], xmm0
  00025	d9 45 fc	 fld	 DWORD PTR tv75[ebp]

; 14   : }

  00028	8b e5		 mov	 esp, ebp
  0002a	5d		 pop	 ebp
  0002b	c3		 ret	 0
_strtof	ENDP
_TEXT	ENDS
END
