; Listing generated by Microsoft (R) Optimizing Compiler Version 16.00.40219.01 

	TITLE	C:\Users\Phail\Documents\GitHub\MollenOS\clib\src\stdio\vasprintf.c
	.686P
	.XMM
	include listing.inc
	.model	flat

INCLUDELIB MSVCRT
INCLUDELIB OLDNAMES

PUBLIC	_vasprintf
EXTRN	_streamout:PROC
; Function compile flags: /Ogtp
; File c:\users\phail\documents\github\mollenos\clib\src\stdio\vasprintf.c
;	COMDAT _vasprintf
_TEXT	SEGMENT
_ret$ = 8						; size = 4
_format$ = 12						; size = 4
_ap$ = 16						; size = 4
_vasprintf PROC						; COMDAT

; 16   : {

  00000	55		 push	 ebp
  00001	8b ec		 mov	 ebp, esp

; 17   : 	if(format == NULL || ret == NULL)

  00003	8b 4d 0c	 mov	 ecx, DWORD PTR _format$[ebp]
  00006	85 c9		 test	 ecx, ecx
  00008	74 1c		 je	 SHORT $LN1@vasprintf
  0000a	8b 45 08	 mov	 eax, DWORD PTR _ret$[ebp]
  0000d	85 c0		 test	 eax, eax
  0000f	74 15		 je	 SHORT $LN1@vasprintf

; 19   : 
; 20   : 	return streamout(ret, 0x200000, format, ap);

  00011	8b 55 10	 mov	 edx, DWORD PTR _ap$[ebp]
  00014	52		 push	 edx
  00015	51		 push	 ecx
  00016	68 00 00 20 00	 push	 2097152			; 00200000H
  0001b	50		 push	 eax
  0001c	e8 00 00 00 00	 call	 _streamout
  00021	83 c4 10	 add	 esp, 16			; 00000010H

; 21   : }

  00024	5d		 pop	 ebp
  00025	c3		 ret	 0
$LN1@vasprintf:

; 18   : 		return -1;

  00026	83 c8 ff	 or	 eax, -1

; 21   : }

  00029	5d		 pop	 ebp
  0002a	c3		 ret	 0
_vasprintf ENDP
_TEXT	ENDS
END
