; Listing generated by Microsoft (R) Optimizing Compiler Version 18.00.40629.0 

	TITLE	C:\Users\Philip\Documents\GitHub\MollenOS\clib\src\stdio\vfprintf.c
	.686P
	.XMM
	include listing.inc
	.model	flat

INCLUDELIB MSVCRT
INCLUDELIB OLDNAMES

PUBLIC	_vfprintf
EXTRN	_vsprintf:PROC
EXTRN	_vprintf:PROC
EXTRN	_fwrite:PROC
EXTRN	___errno:PROC
EXTRN	_memset:PROC
; Function compile flags: /Ogtp
; File c:\users\philip\documents\github\mollenos\clib\src\stdio\vfprintf.c
;	COMDAT _vfprintf
_TEXT	SEGMENT
_Out$ = -256						; size = 256
_stream$ = 8						; size = 4
_format$ = 12						; size = 4
_ap$ = 16						; size = 4
_vfprintf PROC						; COMDAT

; 30   : {

  00000	55		 push	 ebp
  00001	8b ec		 mov	 ebp, esp
  00003	81 ec 00 01 00
	00		 sub	 esp, 256		; 00000100H
  00009	56		 push	 esi

; 31   : 	/* Variables */
; 32   : 	char Out[256];
; 33   : 
; 34   : 	/* Sanitize input */
; 35   : 	if (stream == NULL
; 36   : 		|| stream == stdin) {

  0000a	8b 75 08	 mov	 esi, DWORD PTR _stream$[ebp]
  0000d	85 f6		 test	 esi, esi
  0000f	74 74		 je	 SHORT $LN3@vfprintf
  00011	83 fe 02	 cmp	 esi, 2
  00014	74 6f		 je	 SHORT $LN3@vfprintf

; 39   : 	}
; 40   : 
; 41   : 	/* Sanity */
; 42   : 	if (stream == stdout
; 43   : 		|| stream == stderr)

  00016	83 fe 01	 cmp	 esi, 1
  00019	74 57		 je	 SHORT $LN1@vfprintf
  0001b	83 fe 03	 cmp	 esi, 3
  0001e	74 52		 je	 SHORT $LN1@vfprintf

; 48   : 	}
; 49   : 
; 50   : 	/* Reset buffer */
; 51   : 	memset(&Out[0], 0, sizeof(Out));

  00020	68 00 01 00 00	 push	 256			; 00000100H
  00025	8d 85 00 ff ff
	ff		 lea	 eax, DWORD PTR _Out$[ebp]
  0002b	6a 00		 push	 0
  0002d	50		 push	 eax
  0002e	e8 00 00 00 00	 call	 _memset

; 52   : 
; 53   : 	/* Redirect to sprintf to take care of 
; 54   : 	 * formatting */
; 55   : 	vsprintf(&Out[0], format, ap);

  00033	ff 75 10	 push	 DWORD PTR _ap$[ebp]
  00036	8d 85 00 ff ff
	ff		 lea	 eax, DWORD PTR _Out$[ebp]
  0003c	ff 75 0c	 push	 DWORD PTR _format$[ebp]
  0003f	50		 push	 eax
  00040	e8 00 00 00 00	 call	 _vsprintf

; 56   : 
; 57   : 	/* Use f-write to write 
; 58   : 	 * to the file */
; 59   : 	return fwrite(&Out[0], strlen(&Out[0]), 1, stream);

  00045	8d 8d 00 ff ff
	ff		 lea	 ecx, DWORD PTR _Out$[ebp]
  0004b	83 c4 18	 add	 esp, 24			; 00000018H
  0004e	8d 51 01	 lea	 edx, DWORD PTR [ecx+1]
$LL7@vfprintf:
  00051	8a 01		 mov	 al, BYTE PTR [ecx]
  00053	41		 inc	 ecx
  00054	84 c0		 test	 al, al
  00056	75 f9		 jne	 SHORT $LL7@vfprintf
  00058	56		 push	 esi
  00059	2b ca		 sub	 ecx, edx
  0005b	8d 85 00 ff ff
	ff		 lea	 eax, DWORD PTR _Out$[ebp]
  00061	6a 01		 push	 1
  00063	51		 push	 ecx
  00064	50		 push	 eax
  00065	e8 00 00 00 00	 call	 _fwrite
  0006a	83 c4 10	 add	 esp, 16			; 00000010H
  0006d	5e		 pop	 esi

; 60   : }

  0006e	8b e5		 mov	 esp, ebp
  00070	5d		 pop	 ebp
  00071	c3		 ret	 0
$LN1@vfprintf:

; 44   : 	{
; 45   : 		/* Redirect the call to vprintf instead
; 46   : 		* as the output goes to screen instead */
; 47   : 		return vprintf(format, ap);

  00072	ff 75 10	 push	 DWORD PTR _ap$[ebp]
  00075	ff 75 0c	 push	 DWORD PTR _format$[ebp]
  00078	e8 00 00 00 00	 call	 _vprintf
  0007d	83 c4 08	 add	 esp, 8
  00080	5e		 pop	 esi

; 60   : }

  00081	8b e5		 mov	 esp, ebp
  00083	5d		 pop	 ebp
  00084	c3		 ret	 0
$LN3@vfprintf:

; 37   : 		_set_errno(EINVAL);

  00085	e8 00 00 00 00	 call	 ___errno
  0008a	5e		 pop	 esi
  0008b	c7 00 16 00 00
	00		 mov	 DWORD PTR [eax], 22	; 00000016H

; 38   : 		return -1;

  00091	83 c8 ff	 or	 eax, -1

; 60   : }

  00094	8b e5		 mov	 esp, ebp
  00096	5d		 pop	 ebp
  00097	c3		 ret	 0
_vfprintf ENDP
_TEXT	ENDS
END
