; Listing generated by Microsoft (R) Optimizing Compiler Version 18.00.40629.0 

	TITLE	C:\Users\Philip\Documents\GitHub\MollenOS\clib\src\stdio\vsnprintf.c
	.686P
	.XMM
	include listing.inc
	.model	flat

INCLUDELIB MSVCRT
INCLUDELIB OLDNAMES

PUBLIC	_vsnprintf
EXTRN	_streamout:PROC
EXTRN	@__security_check_cookie@4:PROC
EXTRN	___security_cookie:DWORD
; Function compile flags: /Ogtp
; File c:\users\philip\documents\github\mollenos\clib\src\stdio\vsnprintf.c
;	COMDAT _vsnprintf
_TEXT	SEGMENT
_str$GSCopy$ = -8					; size = 4
__$ArrayPad$ = -4					; size = 4
_str$ = 8						; size = 4
_size$ = 12						; size = 4
_format$ = 16						; size = 4
_ap$ = 20						; size = 4
_vsnprintf PROC						; COMDAT

; 17   : {

  00000	55		 push	 ebp
  00001	8b ec		 mov	 ebp, esp
  00003	83 ec 08	 sub	 esp, 8
  00006	a1 00 00 00 00	 mov	 eax, DWORD PTR ___security_cookie
  0000b	33 c5		 xor	 eax, ebp
  0000d	89 45 fc	 mov	 DWORD PTR __$ArrayPad$[ebp], eax
  00010	8b 45 08	 mov	 eax, DWORD PTR _str$[ebp]
  00013	8b 4d 10	 mov	 ecx, DWORD PTR _format$[ebp]
  00016	89 45 f8	 mov	 DWORD PTR _str$GSCopy$[ebp], eax
  00019	8b 45 14	 mov	 eax, DWORD PTR _ap$[ebp]

; 18   : 	int result;
; 19   : 	result = streamout(&str, size, format, ap);

  0001c	50		 push	 eax
  0001d	51		 push	 ecx
  0001e	ff 75 0c	 push	 DWORD PTR _size$[ebp]
  00021	8d 45 f8	 lea	 eax, DWORD PTR _str$GSCopy$[ebp]
  00024	50		 push	 eax
  00025	e8 00 00 00 00	 call	 _streamout

; 20   : 	return result;
; 21   : }

  0002a	8b 4d fc	 mov	 ecx, DWORD PTR __$ArrayPad$[ebp]
  0002d	83 c4 10	 add	 esp, 16			; 00000010H
  00030	33 cd		 xor	 ecx, ebp
  00032	e8 00 00 00 00	 call	 @__security_check_cookie@4
  00037	8b e5		 mov	 esp, ebp
  00039	5d		 pop	 ebp
  0003a	c3		 ret	 0
_vsnprintf ENDP
_TEXT	ENDS
END
