; Listing generated by Microsoft (R) Optimizing Compiler Version 18.00.40629.0 

	TITLE	C:\Users\Philip\Documents\GitHub\MollenOS\clib\src\stdio\vsprintf.c
	.686P
	.XMM
	include listing.inc
	.model	flat

INCLUDELIB MSVCRT
INCLUDELIB OLDNAMES

PUBLIC	_vsprintf
EXTRN	_streamout:PROC
; Function compile flags: /Ogtp
; File c:\users\philip\documents\github\mollenos\clib\src\stdio\vsprintf.c
;	COMDAT _vsprintf
_TEXT	SEGMENT
_str$ = 8						; size = 4
_format$ = 12						; size = 4
_ap$ = 16						; size = 4
_vsprintf PROC						; COMDAT

; 16   : {

  00000	55		 push	 ebp
  00001	8b ec		 mov	 ebp, esp

; 17   : 	int result;
; 18   : 	result = streamout(&str, 0x20000, format, ap);

  00003	ff 75 10	 push	 DWORD PTR _ap$[ebp]
  00006	8d 45 08	 lea	 eax, DWORD PTR _str$[ebp]
  00009	ff 75 0c	 push	 DWORD PTR _format$[ebp]
  0000c	68 00 00 02 00	 push	 131072			; 00020000H
  00011	50		 push	 eax
  00012	e8 00 00 00 00	 call	 _streamout
  00017	83 c4 10	 add	 esp, 16			; 00000010H

; 19   : 	return result;
; 20   : }

  0001a	5d		 pop	 ebp
  0001b	c3		 ret	 0
_vsprintf ENDP
_TEXT	ENDS
END
