 Ahci

 Timestamp is 58593981 (Tue Dec 20 15:00:33 2016)

 Preferred load address is 10000000

 Start         Length     Name                   Class
 0001:00000000 000000f0H .text                   CODE
 0001:000000f0 00001af5H .text$mn                CODE
 0002:00000000 00000050H .idata$5                DATA
 0002:00000050 00000040H .rdata                  DATA
 0002:00000090 00000046H .edata                  DATA
 0002:000000d8 00000070H .rdata$debug            DATA
 0002:00000148 00000014H .idata$2                DATA
 0002:0000015c 00000014H .idata$3                DATA
 0002:00000170 00000050H .idata$4                DATA
 0002:000001c0 00000126H .idata$6                DATA
 0003:00000000 000004ddH .data                   DATA
 0003:000004e0 00000008H .bss                    DATA
 0004:00000000 00000058H .rsrc$01                DATA
 0004:00000060 00000180H .rsrc$02                DATA

  Address         Publics by Value              Rva+Base       Lib:Object

 0000:00000000       ___guard_fids_count        00000000     <absolute>
 0000:00000000       ___guard_fids_table        00000000     <absolute>
 0000:00000000       ___safe_se_handler_table   00000000     <absolute>
 0000:00000000       ___safe_se_handler_count   00000000     <absolute>
 0000:00000000       ___guard_flags             00000000     <absolute>
 0001:00000000       _asm_memcpy_mmx            10001000     libk:_memcpy.obj
 0001:00000032       _asm_memcpy_sse            10001032     libk:_memcpy.obj
 0001:00000090       __spinlock_acquire         10001090     libk:_spinlock.obj
 0001:000000b7       __spinlock_test            100010b7     libk:_spinlock.obj
 0001:000000dc       __spinlock_release         100010dc     libk:_spinlock.obj
 0001:000000f0       _ModuleInit                100010f0 f   Ahci.obj
 0001:000001f0       _AhciReset                 100011f0 f   Ahci.obj
 0001:00000370       _AhciDestroy               10001370 f   Ahci.obj
 0001:00000470       _AhciTakeOwnership         10001470 f   Ahci.obj
 0001:000004f0       _AhciSetup                 100014f0 f   Ahci.obj
 0001:00000790       _AhciInterruptHandler      10001790 f   Ahci.obj
 0001:00000800       _AhciCommandDispatch       10001800 f   AhciFunctions.obj
 0001:000009d0       _AhciVerifyRegisterFIS     100019d0 f   AhciFunctions.obj
 0001:00000a60       _AhciCommandRegisterFIS    10001a60 f   AhciFunctions.obj
 0001:00000ba0       _AhciDeviceIdentify        10001ba0 f   AhciFunctions.obj
 0001:00000fc0       _AhciReadSectors           10001fc0 f   AhciFunctions.obj
 0001:00001060       _AhciWriteSectors          10002060 f   AhciFunctions.obj
 0001:00001100       _AhciPortCreate            10002100 f   AhciPorts.obj
 0001:000011b0       _AhciPortInit              100021b0 f   AhciPorts.obj
 0001:00001300       _AhciPortReset             10002300 f   AhciPorts.obj
 0001:000013b0       _AhciPortAcquireCommandSlot 100023b0 f   AhciPorts.obj
 0001:00001430       _AhciPortInterruptHandler  10002430 f   AhciPorts.obj
 0001:00001520       _MemCpyBase                10002520 f   libk:memcpy.obj
 0001:000015a0       _MemCpySelect              100025a0 f   libk:memcpy.obj
 0001:000015d0       _memcpy                    100025d0 f   libk:memcpy.obj
 0001:000015f0       _memset                    100025f0 f   libk:memset.obj
 0001:000016b0       _SpinlockReset             100026b0 f   libk:spinlock.obj
 0001:000016c0       _SpinlockAcquire           100026c0 f   libk:spinlock.obj
 0001:000016e0       _SpinlockRelease           100026e0 f   libk:spinlock.obj
 0001:000016f0       _ListCreate                100026f0 f   libk:list.obj
 0001:00001720       _ListDestroy               10002720 f   libk:list.obj
 0001:00001750       _ListCreateNode            10002750 f   libk:list.obj
 0001:00001790       _ListDestroyNode           10002790 f   libk:list.obj
 0001:000017d0       _ListInsert                100027d0 f   libk:list.obj
 0001:000018c0       _ListAppend                100028c0 f   libk:list.obj
 0001:00001930       _ListPopFront              10002930 f   libk:list.obj
 0001:000019a0       _ListGetNodeByKey          100029a0 f   libk:list.obj
 0001:00001a30       _ListUnlinkNode            10002a30 f   libk:list.obj
 0001:00001ad0       _ListRemoveByNode          10002ad0 f   libk:list.obj
 0001:00001af0       _strndup                   10002af0 f   libk:strdup.obj
 0001:00001b20       _dsalloc                   10002b20 f   libk:ds.obj
 0001:00001b30       _dsfree                    10002b30 f   libk:ds.obj
 0001:00001b40       _dsmatchkey                10002b40 f   libk:ds.obj
 0001:00001b90       _dssortkey                 10002b90 f   libk:ds.obj
 0002:00000000       __imp__LogInformation      10003000     MCore:MCore.mos
 0002:00000004       __imp__SleepMs             10003004     MCore:MCore.mos
 0002:00000008       __imp__PciDeviceWrite      10003008     MCore:MCore.mos
 0002:0000000c       __imp__LogFatal            1000300c     MCore:MCore.mos
 0002:00000010       __imp__kmalloc             10003010     MCore:MCore.mos
 0002:00000014       __imp__DmRequestResource   10003014     MCore:MCore.mos
 0002:00000018       __imp__StallMs             10003018     MCore:MCore.mos
 0002:0000001c       __imp__kmalloc_a           1000301c     MCore:MCore.mos
 0002:00000020       __imp__PciDeviceRead       10003020     MCore:MCore.mos
 0002:00000024       __imp__kfree               10003024     MCore:MCore.mos
 0002:00000028       __imp__LogDebug            10003028     MCore:MCore.mos
 0002:0000002c       __imp__AddressSpaceGetCurrent 1000302c     MCore:MCore.mos
 0002:00000030       __imp__DmCreateDevice      10003030     MCore:MCore.mos
 0002:00000034       __imp__AddressSpaceGetMap  10003034     MCore:MCore.mos
 0002:00000038       __imp__SemaphoreP          10003038     MCore:MCore.mos
 0002:0000003c       __imp__SemaphoreDestroy    1000303c     MCore:MCore.mos
 0002:00000040       __imp__Log                 10003040     MCore:MCore.mos
 0002:00000044       __imp__SemaphoreCreate     10003044     MCore:MCore.mos
 0002:00000048       __imp__SemaphoreV          10003048     MCore:MCore.mos
 0002:0000004c       \177MCore_NULL_THUNK_DATA  1000304c     MCore:MCore.mos
 0002:00000088       _GlbAhciDriverName         10003088     Ahci.obj
 0002:0000008c       _GlbAhciDriveDriverName    1000308c     AhciFunctions.obj
 0002:00000148       __IMPORT_DESCRIPTOR_MCore  10003148     MCore:MCore.mos
 0002:0000015c       __NULL_IMPORT_DESCRIPTOR   1000315c     MCore:MCore.mos
 0003:000004e0       _GlbAhciControllerId       100044e0     Ahci.obj
 0003:000004e4       ___GlbMemCpyInstance       100044e4     libk:memcpy.obj

 entry point at        0000:00000000

 Static symbols

 0000:ffff9000       .debug$S                   10000000     MCore:MCore.mos
 0000:ffff9000       .debug$S                   10000000     MCore:MCore.mos
 0000:ffff9000       .debug$S                   10000000     MCore:MCore.mos
 0000:ffff9000       .debug$S                   10000000     MCore:MCore.mos
 0000:ffff9000       .debug$S                   10000000     MCore:MCore.mos
 0000:ffff9000       .debug$S                   10000000     MCore:MCore.mos
 0000:ffff9000       .debug$S                   10000000     MCore:MCore.mos
 0000:ffff9000       .debug$S                   10000000     MCore:MCore.mos
 0000:ffff9000       .debug$S                   10000000     MCore:MCore.mos
 0000:ffff9000       .debug$S                   10000000     MCore:MCore.mos
 0000:ffff9000       .debug$S                   10000000     MCore:MCore.mos
 0000:ffff9000       .debug$S                   10000000     MCore:MCore.mos
 0000:ffff9000       .debug$S                   10000000     MCore:MCore.mos
 0000:ffff9000       .debug$S                   10000000     MCore:MCore.mos
 0000:ffff9000       .debug$S                   10000000     MCore:MCore.mos
 0000:ffff9000       .debug$S                   10000000     MCore:MCore.mos
 0000:ffff9000       .debug$S                   10000000     MCore:MCore.mos
 0000:ffff9000       .debug$S                   10000000     MCore:MCore.mos
 0000:ffff9000       .debug$S                   10000000     MCore:MCore.mos
 0001:00000015       MmxLoop                    10001015     libk:_memcpy.obj
 0001:00000026       MmxRemain                  10001026     libk:_memcpy.obj
 0001:0000002e       MmxDone                    1000102e     libk:_memcpy.obj
 0001:00000055       AlignedLoop                10001055     libk:_memcpy.obj
 0001:00000066       UnalignedLoop              10001066     libk:_memcpy.obj
 0001:00000075       SseDone                    10001075     libk:_memcpy.obj
 0001:00000077       SseRemain                  10001077     libk:_memcpy.obj
 0001:0000007f       CpyDone                    1000107f     libk:_memcpy.obj
 0001:000000a0       __spinlock_acquire.trylock 100010a0     libk:_spinlock.obj
 0001:000000a6       __spinlock_acquire.lockloop 100010a6     libk:_spinlock.obj
 0001:000000af       __spinlock_acquire.gotlock 100010af     libk:_spinlock.obj
 0001:000000d4       __spinlock_test.gotlock    100010d4     libk:_spinlock.obj
 0001:000000d9       __spinlock_test.end        100010d9     libk:_spinlock.obj
 0001:000000ed       __spinlock_release.done    100010ed     libk:_spinlock.obj
 0002:00000090       .edata                     10003090     Ahci.exp
 0002:000000b8       rgpv                       100030b8     Ahci.exp
 0002:000000bc       rgszName                   100030bc     Ahci.exp
 0002:000000c0       rgwOrd                     100030c0     Ahci.exp
 0002:000000c2       szName                     100030c2     Ahci.exp
 0002:000000cb       $N00001                    100030cb     Ahci.exp
 0002:000002dc       .idata$6                   100032dc     MCore:MCore.mos
 0003:00000000       $SG4294967291              10004000     Ahci.obj
 0003:00000018       $SG4294967290              10004018     Ahci.obj
 0003:00000040       $SG4294967289              10004040     Ahci.obj
 0003:00000048       $SG4294967288              10004048     Ahci.obj
 0003:00000078       $SG4294967287              10004078     Ahci.obj
 0003:00000080       $SG4294967286              10004080     Ahci.obj
 0003:000000ac       $SG4294967285              100040ac     Ahci.obj
 0003:000000b4       $SG4294967284              100040b4     Ahci.obj
 0003:000000cc       $SG4294967283              100040cc     Ahci.obj
 0003:000000d4       $SG4294967282              100040d4     Ahci.obj
 0003:000000fc       $SG4294967281              100040fc     Ahci.obj
 0003:00000104       $SG4294967280              10004104     Ahci.obj
 0003:00000140       $SG4294967279              10004140     Ahci.obj
 0003:00000148       $SG4294967278              10004148     Ahci.obj
 0003:00000178       $SG4294967277              10004178     Ahci.obj
 0003:00000180       $SG4294967224              10004180     AhciFunctions.obj
 0003:0000019c       $SG4294967223              1000419c     AhciFunctions.obj
 0003:000001d8       $SG4294967222              100041d8     AhciFunctions.obj
 0003:000001e0       $SG4294967221              100041e0     AhciFunctions.obj
 0003:00000218       $SG4294967220              10004218     AhciFunctions.obj
 0003:00000220       $SG4294967219              10004220     AhciFunctions.obj
 0003:00000244       $SG4294967218              10004244     AhciFunctions.obj
 0003:00000250       $SG4294967217              10004250     AhciFunctions.obj
 0003:00000290       $SG4294967216              10004290     AhciFunctions.obj
 0003:00000298       $SG4294967215              10004298     AhciFunctions.obj
 0003:000002e8       $SG4294967214              100042e8     AhciFunctions.obj
 0003:000002f0       $SG4294967213              100042f0     AhciFunctions.obj
 0003:0000031c       $SG4294967212              1000431c     AhciFunctions.obj
 0003:00000324       $SG4294967211              10004324     AhciFunctions.obj
 0003:00000348       $SG4294967210              10004348     AhciFunctions.obj
 0003:00000350       $SG4294967209              10004350     AhciFunctions.obj
 0003:00000378       $SG4294967208              10004378     AhciFunctions.obj
 0003:00000380       $SG4294967207              10004380     AhciFunctions.obj
 0003:000003b0       $SG4294967206              100043b0     AhciFunctions.obj
 0003:000003b8       $SG4294967205              100043b8     AhciFunctions.obj
 0003:000003c8       $SG4294967204              100043c8     AhciFunctions.obj
 0003:000003f0       $SG4294967203              100043f0     AhciFunctions.obj
 0003:000003f8       $SG4294967202              100043f8     AhciFunctions.obj
 0003:0000041c       $SG4294967201              1000441c     AhciFunctions.obj
 0003:00000428       $SG4294967154              10004428     AhciPorts.obj
 0003:00000470       $SG4294967153              10004470     AhciPorts.obj
 0003:00000490       $SG4294967152              10004490     AhciPorts.obj
 0003:00000498       $SG4294967151              10004498     AhciPorts.obj
 0003:000004d8       $SG4294967150              100044d8     AhciPorts.obj
 0004:00000060       $R000000                   10005060     * linker generated manifest res *

 Exports

  ordinal    name

        1    _ModuleInit
               exported name: ModuleInit
