 Cmos

 Timestamp is 58593980 (Tue Dec 20 15:00:32 2016)

 Preferred load address is 10000000

 Start         Length     Name                   Class
 0001:00000000 00000083H .text                   CODE
 0001:00000090 000008faH .text$mn                CODE
 0002:00000000 00000024H .idata$5                DATA
 0002:00000030 0000003cH .rdata                  DATA
 0002:00000070 0000007dH .edata                  DATA
 0002:000000f0 00000070H .rdata$debug            DATA
 0002:00000160 00000014H .idata$2                DATA
 0002:00000174 00000014H .idata$3                DATA
 0002:00000188 00000024H .idata$4                DATA
 0002:000001ac 0000007cH .idata$6                DATA
 0003:00000000 00000023H .data                   DATA
 0003:00000024 00000008H .bss                    DATA
 0004:00000000 00000058H .rsrc$01                DATA
 0004:00000060 00000180H .rsrc$02                DATA

  Address         Publics by Value              Rva+Base       Lib:Object

 0000:00000000       ___guard_flags             00000000     <absolute>
 0000:00000000       ___guard_fids_count        00000000     <absolute>
 0000:00000000       ___guard_fids_table        00000000     <absolute>
 0000:00000000       ___safe_se_handler_count   00000000     <absolute>
 0000:00000000       ___safe_se_handler_table   00000000     <absolute>
 0001:00000000       _asm_memcpy_mmx            10001000     libk:_memcpy.obj
 0001:00000032       _asm_memcpy_sse            10001032     libk:_memcpy.obj
 0001:00000090       _CmosGetTime               10001090 f   Cmos.obj
 0001:00000620       _ModuleInit                10001620 f   Cmos.obj
 0001:00000700       _CmosReadRegister          10001700 f   Cmos.obj
 0001:00000780       _CmosWriteRegister         10001780 f   Cmos.obj
 0001:00000800       _MemCpyBase                10001800 f   libk:memcpy.obj
 0001:00000880       _MemCpySelect              10001880 f   libk:memcpy.obj
 0001:000008b0       _memcpy                    100018b0 f   libk:memcpy.obj
 0001:000008d0       _memset                    100018d0 f   libk:memset.obj
 0002:00000000       __imp__DmCreateDevice      10002000     MCore:MCore.mos
 0002:00000004       __imp__IoSpaceWrite        10002004     MCore:MCore.mos
 0002:00000008       __imp__kmalloc             10002008     MCore:MCore.mos
 0002:0000000c       __imp__IoSpaceCreate       1000200c     MCore:MCore.mos
 0002:00000010       __imp__IoSpaceRead         10002010     MCore:MCore.mos
 0002:00000014       __imp__MutexCreate         10002014     MCore:MCore.mos
 0002:00000018       __imp__MutexLock           10002018     MCore:MCore.mos
 0002:0000001c       __imp__MutexUnlock         1000201c     MCore:MCore.mos
 0002:00000020       \177MCore_NULL_THUNK_DATA  10002020     MCore:MCore.mos
 0002:00000068       _GlbCmosDriverName         10002068     Cmos.obj
 0002:00000160       __IMPORT_DESCRIPTOR_MCore  10002160     MCore:MCore.mos
 0002:00000174       __NULL_IMPORT_DESCRIPTOR   10002174     MCore:MCore.mos
 0003:00000028       ___GlbMemCpyInstance       10003028     libk:memcpy.obj

 entry point at        0000:00000000

 Static symbols

 0000:ffffa000       .debug$S                   10000000     MCore:MCore.mos
 0000:ffffa000       .debug$S                   10000000     MCore:MCore.mos
 0000:ffffa000       .debug$S                   10000000     MCore:MCore.mos
 0000:ffffa000       .debug$S                   10000000     MCore:MCore.mos
 0000:ffffa000       .debug$S                   10000000     MCore:MCore.mos
 0000:ffffa000       .debug$S                   10000000     MCore:MCore.mos
 0000:ffffa000       .debug$S                   10000000     MCore:MCore.mos
 0000:ffffa000       .debug$S                   10000000     MCore:MCore.mos
 0001:00000015       MmxLoop                    10001015     libk:_memcpy.obj
 0001:00000026       MmxRemain                  10001026     libk:_memcpy.obj
 0001:0000002e       MmxDone                    1000102e     libk:_memcpy.obj
 0001:00000055       AlignedLoop                10001055     libk:_memcpy.obj
 0001:00000066       UnalignedLoop              10001066     libk:_memcpy.obj
 0001:00000075       SseDone                    10001075     libk:_memcpy.obj
 0001:00000077       SseRemain                  10001077     libk:_memcpy.obj
 0001:0000007f       CpyDone                    1000107f     libk:_memcpy.obj
 0002:00000070       .edata                     10002070     Cmos.exp
 0002:00000098       rgpv                       10002098     Cmos.exp
 0002:000000a4       rgszName                   100020a4     Cmos.exp
 0002:000000b0       rgwOrd                     100020b0     Cmos.exp
 0002:000000b6       szName                     100020b6     Cmos.exp
 0002:000000bf       $N00001                    100020bf     Cmos.exp
 0002:000000d0       $N00002                    100020d0     Cmos.exp
 0002:000000e2       $N00003                    100020e2     Cmos.exp
 0002:0000021e       .idata$6                   1000221e     MCore:MCore.mos
 0003:00000000       $SG4294967291              10003000     Cmos.obj
 0003:00000018       $SG4294967290              10003018     Cmos.obj
 0003:00000024       _GlbCmos                   10003024     Cmos.obj
 0004:00000060       $R000000                   10004060     * linker generated manifest res *

 Exports

  ordinal    name

        1    _CmosReadRegister
               exported name: CmosReadRegister
        2    _CmosWriteRegister
               exported name: CmosWriteRegister
        3    _ModuleInit
               exported name: ModuleInit
