 Hpet

 Timestamp is 58593981 (Tue Dec 20 15:00:33 2016)

 Preferred load address is 10000000

 Start         Length     Name                   Class
 0001:00000000 00000083H .text                   CODE
 0001:00000090 000009a8H .text$mn                CODE
 0002:00000000 0000002cH .idata$5                DATA
 0002:00000030 0000003cH .rdata                  DATA
 0002:00000070 00000046H .edata                  DATA
 0002:000000b8 00000070H .rdata$debug            DATA
 0002:00000128 00000014H .idata$2                DATA
 0002:0000013c 00000014H .idata$3                DATA
 0002:00000150 0000002cH .idata$4                DATA
 0002:0000017c 000000b0H .idata$6                DATA
 0003:00000000 000000a3H .data                   DATA
 0003:000000a8 00000024H .bss                    DATA
 0004:00000000 00000058H .rsrc$01                DATA
 0004:00000060 00000180H .rsrc$02                DATA

  Address         Publics by Value              Rva+Base       Lib:Object

 0000:00000000       ___guard_fids_table        00000000     <absolute>
 0000:00000000       ___safe_se_handler_table   00000000     <absolute>
 0000:00000000       ___guard_fids_count        00000000     <absolute>
 0000:00000000       ___safe_se_handler_count   00000000     <absolute>
 0000:00000000       ___guard_flags             00000000     <absolute>
 0001:00000000       _asm_memcpy_mmx            10001000     libk:_memcpy.obj
 0001:00000032       _asm_memcpy_sse            10001032     libk:_memcpy.obj
 0001:00000090       _HpetTimerHandler          10001090 f   Hpet.obj
 0001:00000130       _HpetComparatorStart       10001130 f   Hpet.obj
 0001:00000300       _HpetComparatorSetup       10001300 f   Hpet.obj
 0001:000003c0       _ModuleInit                100013c0 f   Hpet.obj
 0001:000006d0       _HpetGetClocks             100016d0 f   Hpet.obj
 0001:000006e0       _HpetSleep                 100016e0 f   Hpet.obj
 0001:00000740       _HpetStall                 10001740 f   Hpet.obj
 0001:00000790       _MemCpyBase                10001790 f   libk:memcpy.obj
 0001:00000810       _MemCpySelect              10001810 f   libk:memcpy.obj
 0001:00000840       _memcpy                    10001840 f   libk:memcpy.obj
 0001:00000860       _memset                    10001860 f   libk:memset.obj
 0001:00000920       __alldiv                   10001920 f   libcrt:alldiv.obj
 0001:000009d0       __aulldiv                  100019d0 f   libcrt:aulldiv.obj
 0002:00000000       __imp__DmCreateDevice      10002000     MCore:MCore.mos
 0002:00000004       __imp__IThreadYield        10002004     MCore:MCore.mos
 0002:00000008       __imp__IoSpaceWrite        10002008     MCore:MCore.mos
 0002:0000000c       __imp__LogFatal            1000200c     MCore:MCore.mos
 0002:00000010       __imp__kmalloc             10002010     MCore:MCore.mos
 0002:00000014       __imp__DmRequestResource   10002014     MCore:MCore.mos
 0002:00000018       __imp__IoSpaceCreate       10002018     MCore:MCore.mos
 0002:0000001c       __imp__InterruptDisable    1000201c     MCore:MCore.mos
 0002:00000020       __imp__IoSpaceRead         10002020     MCore:MCore.mos
 0002:00000024       __imp__InterruptRestoreState 10002024     MCore:MCore.mos
 0002:00000028       \177MCore_NULL_THUNK_DATA  10002028     MCore:MCore.mos
 0002:00000068       _GlbHpetDriverName         10002068     Hpet.obj
 0002:00000128       __IMPORT_DESCRIPTOR_MCore  10002128     MCore:MCore.mos
 0002:0000013c       __NULL_IMPORT_DESCRIPTOR   1000213c     MCore:MCore.mos
 0003:000000a8       _GlbHpetFrequency          100030a8     Hpet.obj
 0003:000000b0       _GlbHpetTimerCount         100030b0     Hpet.obj
 0003:000000b4       _GlbHpetTimers             100030b4     Hpet.obj
 0003:000000b8       _GlbHpetCounter            100030b8     Hpet.obj
 0003:000000c0       _GlbHpetBaseAddress        100030c0     Hpet.obj
 0003:000000c4       _GlbHpetMinimumTick        100030c4     Hpet.obj
 0003:000000c8       ___GlbMemCpyInstance       100030c8     libk:memcpy.obj

 entry point at        0000:00000000

 Static symbols

 0000:ffffa000       .debug$S                   10000000     MCore:MCore.mos
 0000:ffffa000       .debug$S                   10000000     MCore:MCore.mos
 0000:ffffa000       .debug$S                   10000000     MCore:MCore.mos
 0000:ffffa000       .debug$S                   10000000     MCore:MCore.mos
 0000:ffffa000       .debug$S                   10000000     MCore:MCore.mos
 0000:ffffa000       .debug$S                   10000000     MCore:MCore.mos
 0000:ffffa000       .debug$S                   10000000     MCore:MCore.mos
 0000:ffffa000       .debug$S                   10000000     MCore:MCore.mos
 0000:ffffa000       .debug$S                   10000000     MCore:MCore.mos
 0000:ffffa000       .debug$S                   10000000     MCore:MCore.mos
 0001:00000015       MmxLoop                    10001015     libk:_memcpy.obj
 0001:00000026       MmxRemain                  10001026     libk:_memcpy.obj
 0001:0000002e       MmxDone                    1000102e     libk:_memcpy.obj
 0001:00000055       AlignedLoop                10001055     libk:_memcpy.obj
 0001:00000066       UnalignedLoop              10001066     libk:_memcpy.obj
 0001:00000075       SseDone                    10001075     libk:_memcpy.obj
 0001:00000077       SseRemain                  10001077     libk:_memcpy.obj
 0001:0000007f       CpyDone                    1000107f     libk:_memcpy.obj
 0001:00000920       $$000000                   10001920     libcrt:alldiv.obj
 0001:000009d0       $$000000                   100019d0     libcrt:aulldiv.obj
 0002:00000070       .edata                     10002070     Hpet.exp
 0002:00000098       rgpv                       10002098     Hpet.exp
 0002:0000009c       rgszName                   1000209c     Hpet.exp
 0002:000000a0       rgwOrd                     100020a0     Hpet.exp
 0002:000000a2       szName                     100020a2     Hpet.exp
 0002:000000ab       $N00001                    100020ab     Hpet.exp
 0002:00000222       .idata$6                   10002222     MCore:MCore.mos
 0003:00000000       $SG4294967291              10003000     Hpet.obj
 0003:0000001c       $SG4294967290              1000301c     Hpet.obj
 0003:00000058       $SG4294967289              10003058     Hpet.obj
 0003:00000060       $SG4294967288              10003060     Hpet.obj
 0003:00000090       $SG4294967287              10003090     Hpet.obj
 0003:00000098       $SG4294967286              10003098     Hpet.obj
 0004:00000060       $R000000                   10004060     * linker generated manifest res *

 Exports

  ordinal    name

        1    _ModuleInit
               exported name: ModuleInit
