 Ohci

 Timestamp is 58593982 (Tue Dec 20 15:00:34 2016)

 Preferred load address is 10000000

 Start         Length     Name                   Class
 0001:00000000 000000f0H .text                   CODE
 0001:000000f0 00002185H .text$mn                CODE
 0002:00000000 0000006cH .idata$5                DATA
 0002:00000070 00000080H .rdata                  DATA
 0002:000000f0 00000046H .edata                  DATA
 0002:00000138 00000070H .rdata$debug            DATA
 0002:000001a8 00000028H .idata$2                DATA
 0002:000001d0 00000014H .idata$3                DATA
 0002:000001e4 0000006cH .idata$4                DATA
 0002:00000250 000001b8H .idata$6                DATA
 0003:00000000 000003b9H .data                   DATA
 0003:000003bc 00000008H .bss                    DATA
 0004:00000000 00000058H .rsrc$01                DATA
 0004:00000060 00000180H .rsrc$02                DATA

  Address         Publics by Value              Rva+Base       Lib:Object

 0000:00000000       ___guard_fids_table        00000000     <absolute>
 0000:00000000       ___guard_flags             00000000     <absolute>
 0000:00000000       ___safe_se_handler_table   00000000     <absolute>
 0000:00000000       ___safe_se_handler_count   00000000     <absolute>
 0000:00000000       ___guard_fids_count        00000000     <absolute>
 0001:00000000       _asm_memcpy_mmx            10001000     libk:_memcpy.obj
 0001:00000032       _asm_memcpy_sse            10001032     libk:_memcpy.obj
 0001:00000090       __spinlock_acquire         10001090     libk:_spinlock.obj
 0001:000000b7       __spinlock_test            100010b7     libk:_spinlock.obj
 0001:000000dc       __spinlock_release         100010dc     libk:_spinlock.obj
 0001:000000f0       _ModuleInit                100010f0 f   Ohci.obj
 0001:00000230       _OhciPortReset             10001230 f   Ohci.obj
 0001:000002d0       _OhciPortStatus            100012d0 f   Ohci.obj
 0001:000003b0       _OhciPortsCheck            100013b0 f   Ohci.obj
 0001:000004f0       _OhciInitQueues            100014f0 f   Ohci.obj
 0001:000005f0       _OhciTakeControl           100015f0 f   Ohci.obj
 0001:00000720       _OhciReset                 10001720 f   Ohci.obj
 0001:000008a0       _OhciSetup                 100018a0 f   Ohci.obj
 0001:00000ab0       _OhciAllocateEp            10001ab0 f   Ohci.obj
 0001:00000b60       _OhciEpInit                10001b60 f   Ohci.obj
 0001:00000c10       _OhciAllocateTd            10001c10 f   Ohci.obj
 0001:00000d00       _OhciTdIo                  10001d00 f   Ohci.obj
 0001:00000ea0       _OhciEndpointSetup         10001ea0 f   Ohci.obj
 0001:00001010       _OhciEndpointDestroy       10002010 f   Ohci.obj
 0001:00001080       _OhciCalculateQueue        10002080 f   Ohci.obj
 0001:00001120       _OhciLinkGeneric           10002120 f   Ohci.obj
 0001:00001220       _OhciLinkPeriodic          10002220 f   Ohci.obj
 0001:000012e0       _OhciUnlinkPeriodic        100022e0 f   Ohci.obj
 0001:00001350       _OhciTransactionInit       10002350 f   Ohci.obj
 0001:000013b0       _OhciTransactionSetup      100023b0 f   Ohci.obj
 0001:00001440       _OhciTransactionIn         10002440 f   Ohci.obj
 0001:000014e0       _OhciTransactionOut        100024e0 f   Ohci.obj
 0001:000015a0       _OhciTransactionSend       100025a0 f   Ohci.obj
 0001:000017d0       _OhciTransactionDestroy    100027d0 f   Ohci.obj
 0001:000018c0       _OhciReloadControlBulk     100028c0 f   Ohci.obj
 0001:00001970       _OhciProcessDoneQueue      10002970 f   Ohci.obj
 0001:00001b70       _OhciProcessTransactions   10002b70 f   Ohci.obj
 0001:00001c10       _OhciInterruptHandler      10002c10 f   Ohci.obj
 0001:00001da0       _MemCpyBase                10002da0 f   libk:memcpy.obj
 0001:00001e20       _MemCpySelect              10002e20 f   libk:memcpy.obj
 0001:00001e50       _memcpy                    10002e50 f   libk:memcpy.obj
 0001:00001e70       _memset                    10002e70 f   libk:memset.obj
 0001:00001f30       _ListCreate                10002f30 f   libk:list.obj
 0001:00001f60       _ListCreateNode            10002f60 f   libk:list.obj
 0001:00001fa0       _ListInsert                10002fa0 f   libk:list.obj
 0001:00002090       _ListAppend                10003090 f   libk:list.obj
 0001:00002100       _ListUnlinkNode            10003100 f   libk:list.obj
 0001:000021a0       _ListRemoveByNode          100031a0 f   libk:list.obj
 0001:000021c0       _SpinlockReset             100031c0 f   libk:spinlock.obj
 0001:000021d0       _SpinlockAcquire           100031d0 f   libk:spinlock.obj
 0001:000021f0       _SpinlockRelease           100031f0 f   libk:spinlock.obj
 0001:00002200       __assert_panic             10003200 f   libk:assert.obj
 0001:00002210       _dsalloc                   10003210 f   libk:ds.obj
 0001:00002220       _dssortkey                 10003220 f   libk:ds.obj
 0002:00000000       __imp__AddressSpaceGetCurrent 10004000     MCore:MCore.mos
 0002:00000004       __imp__IThreadYield        10004004     MCore:MCore.mos
 0002:00000008       __imp__SchedulerWakeupOneThread 10004008     MCore:MCore.mos
 0002:0000000c       __imp__AddressSpaceUnmap   1000400c     MCore:MCore.mos
 0002:00000010       __imp__PciDeviceWrite      10004010     MCore:MCore.mos
 0002:00000014       __imp__kernel_panic        10004014     MCore:MCore.mos
 0002:00000018       __imp__LogFatal            10004018     MCore:MCore.mos
 0002:0000001c       __imp__AddressSpaceGetMap  1000401c     MCore:MCore.mos
 0002:00000020       __imp__kmalloc             10004020     MCore:MCore.mos
 0002:00000024       __imp__DmRequestResource   10004024     MCore:MCore.mos
 0002:00000028       __imp__StallMs             10004028     MCore:MCore.mos
 0002:0000002c       __imp__kmalloc_a           1000402c     MCore:MCore.mos
 0002:00000030       __imp__Log                 10004030     MCore:MCore.mos
 0002:00000034       __imp__SchedulerSleepThread 10004034     MCore:MCore.mos
 0002:00000038       __imp__DelayMs             10004038     MCore:MCore.mos
 0002:0000003c       __imp__kmalloc_apm         1000403c     MCore:MCore.mos
 0002:00000040       __imp__PciDeviceRead       10004040     MCore:MCore.mos
 0002:00000044       __imp__kfree               10004044     MCore:MCore.mos
 0002:00000048       __imp__LogDebug            10004048     MCore:MCore.mos
 0002:0000004c       \177MCore_NULL_THUNK_DATA  1000404c     MCore:MCore.mos
 0002:00000050       __imp__UsbEventCreate      10004050     UsbCore:UsbCore.mod
 0002:00000054       __imp__UsbRegisterController 10004054     UsbCore:UsbCore.mod
 0002:00000058       __imp__UsbTransactionOut   10004058     UsbCore:UsbCore.mod
 0002:0000005c       __imp__UsbGetHcd           1000405c     UsbCore:UsbCore.mod
 0002:00000060       __imp__UsbInitController   10004060     UsbCore:UsbCore.mod
 0002:00000064       __imp__UsbCalculateBandwidth 10004064     UsbCore:UsbCore.mod
 0002:00000068       \177UsbCore_NULL_THUNK_DATA 10004068     UsbCore:UsbCore.mod
 0002:000000a8       _GlbOhciDriverName         100040a8     Ohci.obj
 0002:000000b0       _OhciErrorMessages         100040b0     Ohci.obj
 0002:000001a8       __IMPORT_DESCRIPTOR_MCore  100041a8     MCore:MCore.mos
 0002:000001bc       __IMPORT_DESCRIPTOR_UsbCore 100041bc     UsbCore:UsbCore.mod
 0002:000001d0       __NULL_IMPORT_DESCRIPTOR   100041d0     MCore:MCore.mos
 0003:000003bc       _GlbOhciControllerId       100053bc     Ohci.obj
 0003:000003c0       ___GlbMemCpyInstance       100053c0     libk:memcpy.obj

 entry point at        0000:00000000

 Static symbols

 0000:ffff8000       .debug$S                   10000000     MCore:MCore.mos
 0000:ffff8000       .debug$S                   10000000     UsbCore:UsbCore.mod
 0000:ffff8000       .debug$S                   10000000     UsbCore:UsbCore.mod
 0000:ffff8000       .debug$S                   10000000     UsbCore:UsbCore.mod
 0000:ffff8000       .debug$S                   10000000     UsbCore:UsbCore.mod
 0000:ffff8000       .debug$S                   10000000     UsbCore:UsbCore.mod
 0000:ffff8000       .debug$S                   10000000     UsbCore:UsbCore.mod
 0000:ffff8000       .debug$S                   10000000     MCore:MCore.mos
 0000:ffff8000       .debug$S                   10000000     MCore:MCore.mos
 0000:ffff8000       .debug$S                   10000000     MCore:MCore.mos
 0000:ffff8000       .debug$S                   10000000     MCore:MCore.mos
 0000:ffff8000       .debug$S                   10000000     MCore:MCore.mos
 0000:ffff8000       .debug$S                   10000000     MCore:MCore.mos
 0000:ffff8000       .debug$S                   10000000     MCore:MCore.mos
 0000:ffff8000       .debug$S                   10000000     MCore:MCore.mos
 0000:ffff8000       .debug$S                   10000000     MCore:MCore.mos
 0000:ffff8000       .debug$S                   10000000     MCore:MCore.mos
 0000:ffff8000       .debug$S                   10000000     MCore:MCore.mos
 0000:ffff8000       .debug$S                   10000000     MCore:MCore.mos
 0000:ffff8000       .debug$S                   10000000     MCore:MCore.mos
 0000:ffff8000       .debug$S                   10000000     MCore:MCore.mos
 0000:ffff8000       .debug$S                   10000000     MCore:MCore.mos
 0000:ffff8000       .debug$S                   10000000     MCore:MCore.mos
 0000:ffff8000       .debug$S                   10000000     MCore:MCore.mos
 0000:ffff8000       .debug$S                   10000000     MCore:MCore.mos
 0000:ffff8000       .debug$S                   10000000     MCore:MCore.mos
 0001:00000015       MmxLoop                    10001015     libk:_memcpy.obj
 0001:00000026       MmxRemain                  10001026     libk:_memcpy.obj
 0001:0000002e       MmxDone                    1000102e     libk:_memcpy.obj
 0001:00000055       AlignedLoop                10001055     libk:_memcpy.obj
 0001:00000066       UnalignedLoop              10001066     libk:_memcpy.obj
 0001:00000075       SseDone                    10001075     libk:_memcpy.obj
 0001:00000077       SseRemain                  10001077     libk:_memcpy.obj
 0001:0000007f       CpyDone                    1000107f     libk:_memcpy.obj
 0001:000000a0       __spinlock_acquire.trylock 100010a0     libk:_spinlock.obj
 0001:000000a6       __spinlock_acquire.lockloop 100010a6     libk:_spinlock.obj
 0001:000000af       __spinlock_acquire.gotlock 100010af     libk:_spinlock.obj
 0001:000000d4       __spinlock_test.gotlock    100010d4     libk:_spinlock.obj
 0001:000000d9       __spinlock_test.end        100010d9     libk:_spinlock.obj
 0001:000000ed       __spinlock_release.done    100010ed     libk:_spinlock.obj
 0002:000000f0       .edata                     100040f0     Ohci.exp
 0002:00000118       rgpv                       10004118     Ohci.exp
 0002:0000011c       rgszName                   1000411c     Ohci.exp
 0002:00000120       rgwOrd                     10004120     Ohci.exp
 0002:00000122       szName                     10004122     Ohci.exp
 0002:0000012b       $N00001                    1000412b     Ohci.exp
 0002:0000037c       .idata$6                   1000437c     MCore:MCore.mos
 0002:000003fc       .idata$6                   100043fc     UsbCore:UsbCore.mod
 0003:00000000       $SG4294967291              10005000     Ohci.obj
 0003:00000018       $SG4294967290              10005018     Ohci.obj
 0003:00000024       $SG4294967289              10005024     Ohci.obj
 0003:00000030       $SG4294967288              10005030     Ohci.obj
 0003:00000048       $SG4294967287              10005048     Ohci.obj
 0003:00000060       $SG4294967286              10005060     Ohci.obj
 0003:00000074       $SG4294967285              10005074     Ohci.obj
 0003:0000008c       $SG4294967284              1000508c     Ohci.obj
 0003:000000a0       $SG4294967283              100050a0     Ohci.obj
 0003:000000b0       $SG4294967282              100050b0     Ohci.obj
 0003:000000c0       $SG4294967281              100050c0     Ohci.obj
 0003:000000d0       $SG4294967280              100050d0     Ohci.obj
 0003:000000dc       $SG4294967279              100050dc     Ohci.obj
 0003:000000e8       $SG4294967278              100050e8     Ohci.obj
 0003:000000f8       $SG4294967277              100050f8     Ohci.obj
 0003:00000108       $SG4294967276              10005108     Ohci.obj
 0003:00000118       $SG4294967275              10005118     Ohci.obj
 0003:00000128       $SG4294967274              10005128     Ohci.obj
 0003:00000150       $SG4294967273              10005150     Ohci.obj
 0003:00000158       $SG4294967272              10005158     Ohci.obj
 0003:00000188       $SG4294967271              10005188     Ohci.obj
 0003:00000190       $SG4294967270              10005190     Ohci.obj
 0003:000001c0       $SG4294967269              100051c0     Ohci.obj
 0003:000001fc       $SG4294967268              100051fc     Ohci.obj
 0003:00000204       $SG4294967267              10005204     Ohci.obj
 0003:0000022c       $SG4294967266              1000522c     Ohci.obj
 0003:00000234       $SG4294967263              10005234     Ohci.obj
 0003:00000254       $SG4294967261              10005254     Ohci.obj
 0003:00000268       $SG4294967265              10005268     Ohci.obj
 0003:000002ac       $SG4294967264              100052ac     Ohci.obj
 0003:000002b4       $SG4294967262              100052b4     Ohci.obj
 0003:000002bc       $SG4294967260              100052bc     Ohci.obj
 0003:000002c4       $SG4294967259              100052c4     Ohci.obj
 0003:000002ec       $SG4294967258              100052ec     Ohci.obj
 0003:000002f4       $SG4294967257              100052f4     Ohci.obj
 0003:00000300       $SG4294967256              10005300     Ohci.obj
 0003:00000304       $SG4294967255              10005304     Ohci.obj
 0003:00000324       $SG4294967254              10005324     Ohci.obj
 0003:00000348       $SG4294967253              10005348     Ohci.obj
 0003:00000380       $SG4294967252              10005380     Ohci.obj
 0003:00000394       $SG4294967251              10005394     Ohci.obj
 0003:0000039c       $SG4294967250              1000539c     Ohci.obj
 0003:000003b4       $SG4294967249              100053b4     Ohci.obj
 0004:00000060       $R000000                   10006060     * linker generated manifest res *

 Exports

  ordinal    name

        1    _ModuleInit
               exported name: ModuleInit
