 Pit

 Timestamp is 58593980 (Tue Dec 20 15:00:32 2016)

 Preferred load address is 10000000

 Start         Length     Name                   Class
 0001:00000000 00000083H .text                   CODE
 0001:00000090 000003baH .text$mn                CODE
 0002:00000000 0000002cH .idata$5                DATA
 0002:00000030 0000003cH .rdata                  DATA
 0002:00000070 00000045H .edata                  DATA
 0002:000000b8 0000006cH .rdata$debug            DATA
 0002:00000124 00000014H .idata$2                DATA
 0002:00000138 00000014H .idata$3                DATA
 0002:0000014c 0000002cH .idata$4                DATA
 0002:00000178 000000aaH .idata$6                DATA
 0003:00000000 00000056H .data                   DATA
 0003:00000058 00000004H .bss                    DATA
 0004:00000000 00000058H .rsrc$01                DATA
 0004:00000060 00000180H .rsrc$02                DATA

  Address         Publics by Value              Rva+Base       Lib:Object

 0000:00000000       ___safe_se_handler_table   00000000     <absolute>
 0000:00000000       ___guard_flags             00000000     <absolute>
 0000:00000000       ___guard_fids_table        00000000     <absolute>
 0000:00000000       ___safe_se_handler_count   00000000     <absolute>
 0000:00000000       ___guard_fids_count        00000000     <absolute>
 0001:00000000       _asm_memcpy_mmx            10001000     libk:_memcpy.obj
 0001:00000032       _asm_memcpy_sse            10001032     libk:_memcpy.obj
 0001:00000090       _PitIrqHandler             10001090 f   Pit.obj
 0001:000000c0       _ModuleInit                100010c0 f   Pit.obj
 0001:00000210       _PitGetClocks              10001210 f   Pit.obj
 0001:00000230       _PitSleep                  10001230 f   Pit.obj
 0001:00000280       _PitStall                  10001280 f   Pit.obj
 0001:000002c0       _MemCpyBase                100012c0 f   libk:memcpy.obj
 0001:00000340       _MemCpySelect              10001340 f   libk:memcpy.obj
 0001:00000370       _memcpy                    10001370 f   libk:memcpy.obj
 0001:00000390       _memset                    10001390 f   libk:memset.obj
 0002:00000000       __imp__DmCreateDevice      10002000     MCore:MCore.mos
 0002:00000004       __imp__IThreadYield        10002004     MCore:MCore.mos
 0002:00000008       __imp__IoSpaceWrite        10002008     MCore:MCore.mos
 0002:0000000c       __imp__LogFatal            1000200c     MCore:MCore.mos
 0002:00000010       __imp__kmalloc             10002010     MCore:MCore.mos
 0002:00000014       __imp__DmRequestResource   10002014     MCore:MCore.mos
 0002:00000018       __imp__IoSpaceCreate       10002018     MCore:MCore.mos
 0002:0000001c       __imp__InterruptDisable    1000201c     MCore:MCore.mos
 0002:00000020       __imp__kfree               10002020     MCore:MCore.mos
 0002:00000024       __imp__InterruptRestoreState 10002024     MCore:MCore.mos
 0002:00000028       \177MCore_NULL_THUNK_DATA  10002028     MCore:MCore.mos
 0002:00000068       _GlbPitDriverName          10002068     Pit.obj
 0002:00000124       __IMPORT_DESCRIPTOR_MCore  10002124     MCore:MCore.mos
 0002:00000138       __NULL_IMPORT_DESCRIPTOR   10002138     MCore:MCore.mos
 0003:00000058       ___GlbMemCpyInstance       10003058     libk:memcpy.obj

 entry point at        0000:00000000

 Static symbols

 0000:ffffa000       .debug$S                   10000000     MCore:MCore.mos
 0000:ffffa000       .debug$S                   10000000     MCore:MCore.mos
 0000:ffffa000       .debug$S                   10000000     MCore:MCore.mos
 0000:ffffa000       .debug$S                   10000000     MCore:MCore.mos
 0000:ffffa000       .debug$S                   10000000     MCore:MCore.mos
 0000:ffffa000       .debug$S                   10000000     MCore:MCore.mos
 0000:ffffa000       .debug$S                   10000000     MCore:MCore.mos
 0000:ffffa000       .debug$S                   10000000     MCore:MCore.mos
 0000:ffffa000       .debug$S                   10000000     MCore:MCore.mos
 0000:ffffa000       .debug$S                   10000000     MCore:MCore.mos
 0001:00000015       MmxLoop                    10001015     libk:_memcpy.obj
 0001:00000026       MmxRemain                  10001026     libk:_memcpy.obj
 0001:0000002e       MmxDone                    1000102e     libk:_memcpy.obj
 0001:00000055       AlignedLoop                10001055     libk:_memcpy.obj
 0001:00000066       UnalignedLoop              10001066     libk:_memcpy.obj
 0001:00000075       SseDone                    10001075     libk:_memcpy.obj
 0001:00000077       SseRemain                  10001077     libk:_memcpy.obj
 0001:0000007f       CpyDone                    1000107f     libk:_memcpy.obj
 0002:00000070       .edata                     10002070     Pit.exp
 0002:00000098       rgpv                       10002098     Pit.exp
 0002:0000009c       rgszName                   1000209c     Pit.exp
 0002:000000a0       rgwOrd                     100020a0     Pit.exp
 0002:000000a2       szName                     100020a2     Pit.exp
 0002:000000aa       $N00001                    100020aa     Pit.exp
 0002:00000218       .idata$6                   10002218     MCore:MCore.mos
 0003:00000000       $SG4294967291              10003000     Pit.obj
 0003:00000014       $SG4294967290              10003014     Pit.obj
 0003:00000044       $SG4294967289              10003044     Pit.obj
 0003:0000004c       $SG4294967288              1000304c     Pit.obj
 0004:00000060       $R000000                   10004060     * linker generated manifest res *

 Exports

  ordinal    name

        1    _ModuleInit
               exported name: ModuleInit
