; Listing generated by Microsoft (R) Optimizing Compiler Version 18.00.30501.0 

	TITLE	C:\Users\Phail\Documents\GitHub\MollenOS\clib\src\math\copysign.c
	.686P
	.XMM
	include listing.inc
	.model	flat

INCLUDELIB MSVCRT
INCLUDELIB OLDNAMES

PUBLIC	_copysign
EXTRN	__fltused:DWORD
; Function compile flags: /Ogtp
; File c:\users\phail\documents\github\mollenos\clib\src\math\copysign.c
;	COMDAT _copysign
_TEXT	SEGMENT
_x$ = 8							; size = 8
_y$ = 16						; size = 8
_copysign PROC						; COMDAT

; 23   : {

  00000	55		 push	 ebp
  00001	8b ec		 mov	 ebp, esp

; 24   : 	__HI(x) = (__HI(x)&0x7fffffff)|(__HI(y)&0x80000000);

  00003	8b 4d 14	 mov	 ecx, DWORD PTR _y$[ebp+4]
  00006	33 4d 0c	 xor	 ecx, DWORD PTR _x$[ebp+4]
  00009	81 e1 ff ff ff
	7f		 and	 ecx, 2147483647		; 7fffffffH
  0000f	33 4d 14	 xor	 ecx, DWORD PTR _y$[ebp+4]
  00012	89 4d 0c	 mov	 DWORD PTR _x$[ebp+4], ecx

; 25   : 	return x;

  00015	dd 45 08	 fld	 QWORD PTR _x$[ebp]

; 26   : }

  00018	5d		 pop	 ebp
  00019	c3		 ret	 0
_copysign ENDP
_TEXT	ENDS
END
