; Listing generated by Microsoft (R) Optimizing Compiler Version 18.00.40629.0 

	TITLE	C:\Users\Philip\Documents\GitHub\MollenOS\clib\src\math\cos.c
	.686P
	.XMM
	include listing.inc
	.model	flat

INCLUDELIB MSVCRT
INCLUDELIB OLDNAMES

_DATA	SEGMENT
_cos_off_tbl DQ	00000000000000000r		; 0
	DQ	0bff921fb54442d18r		; -1.5708
	DQ	00000000000000000r		; 0
	DQ	0bff921fb54442d18r		; -1.5708
_cos_sign_tbl DQ 03ff0000000000000r		; 1
	DQ	0bff0000000000000r		; -1
	DQ	0bff0000000000000r		; -1
	DQ	03ff0000000000000r		; 1
_DATA	ENDS
PUBLIC	_cosh
PUBLIC	__real@3fe0000000000000
PUBLIC	__real@3ff0000000000000
EXTRN	__CIexp:PROC
EXTRN	__fltused:DWORD
;	COMDAT __real@3ff0000000000000
CONST	SEGMENT
__real@3ff0000000000000 DQ 03ff0000000000000r	; 1
CONST	ENDS
;	COMDAT __real@3fe0000000000000
CONST	SEGMENT
__real@3fe0000000000000 DQ 03fe0000000000000r	; 0.5
CONST	ENDS
; Function compile flags: /Ogtp
; File c:\users\philip\documents\github\mollenos\clib\src\math\cos.c
;	COMDAT _cosh
_TEXT	SEGMENT
_x$ = 8							; size = 8
_cosh	PROC						; COMDAT

; 104  : {

  00000	55		 push	 ebp
  00001	8b ec		 mov	 ebp, esp

; 105  :     const double ebig = exp(fabs(x));

  00003	dd 45 08	 fld	 QWORD PTR _x$[ebp]
  00006	d9 e1		 fabs
  00008	e8 00 00 00 00	 call	 __CIexp

; 106  :     return (ebig + 1.0/ebig) / 2.0;

  0000d	d9 e8		 fld1
  0000f	d8 f1		 fdiv	 ST(0), ST(1)
  00011	de c1		 faddp	 ST(1), ST(0)
  00013	dc 0d 00 00 00
	00		 fmul	 QWORD PTR __real@3fe0000000000000

; 107  : }

  00019	5d		 pop	 ebp
  0001a	c3		 ret	 0
_cosh	ENDP
_TEXT	ENDS
END
