; Listing generated by Microsoft (R) Optimizing Compiler Version 18.00.40629.0 

	TITLE	C:\Users\Philip\Documents\GitHub\MollenOS\clib\crt\msvc\math.c
	.686P
	.XMM
	include listing.inc
	.model	flat

INCLUDELIB MSVCRT
INCLUDELIB OLDNAMES

PUBLIC	___fpclassifyl
PUBLIC	___fpclassifyf
PUBLIC	___fpclassify
PUBLIC	___isnan
PUBLIC	___isnanf
PUBLIC	___isnanl
PUBLIC	___signbit
PUBLIC	___signbitf
PUBLIC	___signbitl
PUBLIC	__CItan
PUBLIC	__CIsinh
PUBLIC	__CIcosh
PUBLIC	__CItanh
PUBLIC	__CIasin
PUBLIC	__CIacos
PUBLIC	__CIatan
PUBLIC	__CIatan2
PUBLIC	__CIexp
PUBLIC	__CIlog10
PUBLIC	__CIfmod
PUBLIC	__CIpow
PUBLIC	__CIcos
PUBLIC	__CIlog
PUBLIC	__CIsin
PUBLIC	__CIsqrt
EXTRN	__CIacos:PROC
EXTRN	__CIasin:PROC
EXTRN	__CIatan:PROC
EXTRN	__CIatan2:PROC
EXTRN	__CIcos:PROC
EXTRN	__CIcosh:PROC
EXTRN	__CIexp:PROC
EXTRN	__CIfmod:PROC
EXTRN	__CIlog:PROC
EXTRN	__CIlog10:PROC
EXTRN	__CIpow:PROC
EXTRN	__CIsin:PROC
EXTRN	__CIsinh:PROC
EXTRN	__CIsqrt:PROC
EXTRN	__CItan:PROC
EXTRN	__CItanh:PROC
EXTRN	__fltused:DWORD
; Function compile flags: /Ogtp
; File c:\users\philip\documents\github\mollenos\clib\crt\msvc\math.c
;	COMDAT __CIsqrt
_TEXT	SEGMENT
_x$ = -8						; size = 8
__CIsqrt PROC						; COMDAT

; 150  : {

  00000	55		 push	 ebp
  00001	8b ec		 mov	 ebp, esp
  00003	83 ec 08	 sub	 esp, 8

; 151  : 	FPU_DOUBLE(x);

  00006	dd 5d f8	 fstp	 QWORD PTR _x$[ebp]
  00009	9b		 fwait

; 152  : 	return sqrt(x);

  0000a	dd 45 f8	 fld	 QWORD PTR _x$[ebp]
  0000d	e8 00 00 00 00	 call	 __CIsqrt

; 153  : }

  00012	8b e5		 mov	 esp, ebp
  00014	5d		 pop	 ebp
  00015	c3		 ret	 0
__CIsqrt ENDP
_TEXT	ENDS
; Function compile flags: /Ogtp
; File c:\users\philip\documents\github\mollenos\clib\crt\msvc\math.c
;	COMDAT __CIsin
_TEXT	SEGMENT
_x$ = -8						; size = 8
__CIsin	PROC						; COMDAT

; 141  : {

  00000	55		 push	 ebp
  00001	8b ec		 mov	 ebp, esp
  00003	83 ec 08	 sub	 esp, 8

; 142  : 	FPU_DOUBLE(x);

  00006	dd 5d f8	 fstp	 QWORD PTR _x$[ebp]
  00009	9b		 fwait

; 143  : 	return sin(x);

  0000a	dd 45 f8	 fld	 QWORD PTR _x$[ebp]
  0000d	e8 00 00 00 00	 call	 __CIsin

; 144  : }

  00012	8b e5		 mov	 esp, ebp
  00014	5d		 pop	 ebp
  00015	c3		 ret	 0
__CIsin	ENDP
_TEXT	ENDS
; Function compile flags: /Ogtp
; File c:\users\philip\documents\github\mollenos\clib\crt\msvc\math.c
;	COMDAT __CIlog
_TEXT	SEGMENT
_x$ = -8						; size = 8
__CIlog	PROC						; COMDAT

; 132  : {

  00000	55		 push	 ebp
  00001	8b ec		 mov	 ebp, esp
  00003	83 ec 08	 sub	 esp, 8

; 133  : 	FPU_DOUBLE(x);

  00006	dd 5d f8	 fstp	 QWORD PTR _x$[ebp]
  00009	9b		 fwait

; 134  : 	return log(x);

  0000a	dd 45 f8	 fld	 QWORD PTR _x$[ebp]
  0000d	e8 00 00 00 00	 call	 __CIlog

; 135  : }

  00012	8b e5		 mov	 esp, ebp
  00014	5d		 pop	 ebp
  00015	c3		 ret	 0
__CIlog	ENDP
_TEXT	ENDS
; Function compile flags: /Ogtp
; File c:\users\philip\documents\github\mollenos\clib\crt\msvc\math.c
;	COMDAT __CIcos
_TEXT	SEGMENT
_x$ = -8						; size = 8
__CIcos	PROC						; COMDAT

; 123  : {

  00000	55		 push	 ebp
  00001	8b ec		 mov	 ebp, esp
  00003	83 ec 08	 sub	 esp, 8

; 124  : 	FPU_DOUBLE(x);

  00006	dd 5d f8	 fstp	 QWORD PTR _x$[ebp]
  00009	9b		 fwait

; 125  : 	return cos(x);

  0000a	dd 45 f8	 fld	 QWORD PTR _x$[ebp]
  0000d	e8 00 00 00 00	 call	 __CIcos

; 126  : }

  00012	8b e5		 mov	 esp, ebp
  00014	5d		 pop	 ebp
  00015	c3		 ret	 0
__CIcos	ENDP
_TEXT	ENDS
; Function compile flags: /Ogtp
; File c:\users\philip\documents\github\mollenos\clib\crt\msvc\math.c
;	COMDAT __CIpow
_TEXT	SEGMENT
_x$ = -16						; size = 8
_y$ = -8						; size = 8
__CIpow	PROC						; COMDAT

; 114  : {

  00000	55		 push	 ebp
  00001	8b ec		 mov	 ebp, esp
  00003	83 ec 10	 sub	 esp, 16			; 00000010H

; 115  : 	FPU_DOUBLES(x, y);

  00006	dd 5d f0	 fstp	 QWORD PTR _x$[ebp]
  00009	9b		 fwait
  0000a	dd 5d f8	 fstp	 QWORD PTR _y$[ebp]
  0000d	9b		 fwait

; 116  : 	return pow(x, y);

  0000e	dd 45 f0	 fld	 QWORD PTR _x$[ebp]
  00011	dd 45 f8	 fld	 QWORD PTR _y$[ebp]
  00014	e8 00 00 00 00	 call	 __CIpow

; 117  : }

  00019	8b e5		 mov	 esp, ebp
  0001b	5d		 pop	 ebp
  0001c	c3		 ret	 0
__CIpow	ENDP
_TEXT	ENDS
; Function compile flags: /Ogtp
; File c:\users\philip\documents\github\mollenos\clib\crt\msvc\math.c
;	COMDAT __CIfmod
_TEXT	SEGMENT
_x$ = -16						; size = 8
_y$ = -8						; size = 8
__CIfmod PROC						; COMDAT

; 103  : {

  00000	55		 push	 ebp
  00001	8b ec		 mov	 ebp, esp
  00003	83 ec 10	 sub	 esp, 16			; 00000010H

; 104  : 	FPU_DOUBLES(x, y);

  00006	dd 5d f0	 fstp	 QWORD PTR _x$[ebp]
  00009	9b		 fwait
  0000a	dd 5d f8	 fstp	 QWORD PTR _y$[ebp]
  0000d	9b		 fwait

; 105  : 	return fmod(x, y);

  0000e	dd 45 f0	 fld	 QWORD PTR _x$[ebp]
  00011	dd 45 f8	 fld	 QWORD PTR _y$[ebp]
  00014	e8 00 00 00 00	 call	 __CIfmod

; 106  : }

  00019	8b e5		 mov	 esp, ebp
  0001b	5d		 pop	 ebp
  0001c	c3		 ret	 0
__CIfmod ENDP
_TEXT	ENDS
; Function compile flags: /Ogtp
; File c:\users\philip\documents\github\mollenos\clib\crt\msvc\math.c
;	COMDAT __CIlog10
_TEXT	SEGMENT
_x$ = -8						; size = 8
__CIlog10 PROC						; COMDAT

; 94   : {

  00000	55		 push	 ebp
  00001	8b ec		 mov	 ebp, esp
  00003	83 ec 08	 sub	 esp, 8

; 95   : 	FPU_DOUBLE(x);

  00006	dd 5d f8	 fstp	 QWORD PTR _x$[ebp]
  00009	9b		 fwait

; 96   : 	return log10(x);

  0000a	dd 45 f8	 fld	 QWORD PTR _x$[ebp]
  0000d	e8 00 00 00 00	 call	 __CIlog10

; 97   : }

  00012	8b e5		 mov	 esp, ebp
  00014	5d		 pop	 ebp
  00015	c3		 ret	 0
__CIlog10 ENDP
_TEXT	ENDS
; Function compile flags: /Ogtp
; File c:\users\philip\documents\github\mollenos\clib\crt\msvc\math.c
;	COMDAT __CIexp
_TEXT	SEGMENT
_x$ = -8						; size = 8
__CIexp	PROC						; COMDAT

; 85   : {

  00000	55		 push	 ebp
  00001	8b ec		 mov	 ebp, esp
  00003	83 ec 08	 sub	 esp, 8

; 86   : 	FPU_DOUBLE(x);

  00006	dd 5d f8	 fstp	 QWORD PTR _x$[ebp]
  00009	9b		 fwait

; 87   : 	return exp(x);

  0000a	dd 45 f8	 fld	 QWORD PTR _x$[ebp]
  0000d	e8 00 00 00 00	 call	 __CIexp

; 88   : }

  00012	8b e5		 mov	 esp, ebp
  00014	5d		 pop	 ebp
  00015	c3		 ret	 0
__CIexp	ENDP
_TEXT	ENDS
; Function compile flags: /Ogtp
; File c:\users\philip\documents\github\mollenos\clib\crt\msvc\math.c
;	COMDAT __CIatan2
_TEXT	SEGMENT
_y$ = -16						; size = 8
_x$ = -8						; size = 8
__CIatan2 PROC						; COMDAT

; 76   : {

  00000	55		 push	 ebp
  00001	8b ec		 mov	 ebp, esp
  00003	83 ec 10	 sub	 esp, 16			; 00000010H

; 77   : 	FPU_DOUBLES(y, x);

  00006	dd 5d f0	 fstp	 QWORD PTR _y$[ebp]
  00009	9b		 fwait
  0000a	dd 5d f8	 fstp	 QWORD PTR _x$[ebp]
  0000d	9b		 fwait

; 78   : 	return atan2(y, x);

  0000e	dd 45 f0	 fld	 QWORD PTR _y$[ebp]
  00011	dd 45 f8	 fld	 QWORD PTR _x$[ebp]
  00014	e8 00 00 00 00	 call	 __CIatan2

; 79   : }

  00019	8b e5		 mov	 esp, ebp
  0001b	5d		 pop	 ebp
  0001c	c3		 ret	 0
__CIatan2 ENDP
_TEXT	ENDS
; Function compile flags: /Ogtp
; File c:\users\philip\documents\github\mollenos\clib\crt\msvc\math.c
;	COMDAT __CIatan
_TEXT	SEGMENT
_x$ = -8						; size = 8
__CIatan PROC						; COMDAT

; 67   : {

  00000	55		 push	 ebp
  00001	8b ec		 mov	 ebp, esp
  00003	83 ec 08	 sub	 esp, 8

; 68   : 	FPU_DOUBLE(x);

  00006	dd 5d f8	 fstp	 QWORD PTR _x$[ebp]
  00009	9b		 fwait

; 69   : 	return atan(x);

  0000a	dd 45 f8	 fld	 QWORD PTR _x$[ebp]
  0000d	e8 00 00 00 00	 call	 __CIatan

; 70   : }

  00012	8b e5		 mov	 esp, ebp
  00014	5d		 pop	 ebp
  00015	c3		 ret	 0
__CIatan ENDP
_TEXT	ENDS
; Function compile flags: /Ogtp
; File c:\users\philip\documents\github\mollenos\clib\crt\msvc\math.c
;	COMDAT __CIacos
_TEXT	SEGMENT
_x$ = -8						; size = 8
__CIacos PROC						; COMDAT

; 58   : {

  00000	55		 push	 ebp
  00001	8b ec		 mov	 ebp, esp
  00003	83 ec 08	 sub	 esp, 8

; 59   : 	FPU_DOUBLE(x);

  00006	dd 5d f8	 fstp	 QWORD PTR _x$[ebp]
  00009	9b		 fwait

; 60   : 	return acos(x);

  0000a	dd 45 f8	 fld	 QWORD PTR _x$[ebp]
  0000d	e8 00 00 00 00	 call	 __CIacos

; 61   : }

  00012	8b e5		 mov	 esp, ebp
  00014	5d		 pop	 ebp
  00015	c3		 ret	 0
__CIacos ENDP
_TEXT	ENDS
; Function compile flags: /Ogtp
; File c:\users\philip\documents\github\mollenos\clib\crt\msvc\math.c
;	COMDAT __CIasin
_TEXT	SEGMENT
_x$ = -8						; size = 8
__CIasin PROC						; COMDAT

; 49   : {

  00000	55		 push	 ebp
  00001	8b ec		 mov	 ebp, esp
  00003	83 ec 08	 sub	 esp, 8

; 50   : 	FPU_DOUBLE(x);

  00006	dd 5d f8	 fstp	 QWORD PTR _x$[ebp]
  00009	9b		 fwait

; 51   : 	return asin(x);

  0000a	dd 45 f8	 fld	 QWORD PTR _x$[ebp]
  0000d	e8 00 00 00 00	 call	 __CIasin

; 52   : }

  00012	8b e5		 mov	 esp, ebp
  00014	5d		 pop	 ebp
  00015	c3		 ret	 0
__CIasin ENDP
_TEXT	ENDS
; Function compile flags: /Ogtp
; File c:\users\philip\documents\github\mollenos\clib\crt\msvc\math.c
;	COMDAT __CItanh
_TEXT	SEGMENT
_x$ = -8						; size = 8
__CItanh PROC						; COMDAT

; 40   : {

  00000	55		 push	 ebp
  00001	8b ec		 mov	 ebp, esp
  00003	83 ec 08	 sub	 esp, 8

; 41   : 	FPU_DOUBLE(x);

  00006	dd 5d f8	 fstp	 QWORD PTR _x$[ebp]
  00009	9b		 fwait

; 42   : 	return tanh(x);

  0000a	dd 45 f8	 fld	 QWORD PTR _x$[ebp]
  0000d	e8 00 00 00 00	 call	 __CItanh

; 43   : }

  00012	8b e5		 mov	 esp, ebp
  00014	5d		 pop	 ebp
  00015	c3		 ret	 0
__CItanh ENDP
_TEXT	ENDS
; Function compile flags: /Ogtp
; File c:\users\philip\documents\github\mollenos\clib\crt\msvc\math.c
;	COMDAT __CIcosh
_TEXT	SEGMENT
_x$ = -8						; size = 8
__CIcosh PROC						; COMDAT

; 31   : {

  00000	55		 push	 ebp
  00001	8b ec		 mov	 ebp, esp
  00003	83 ec 08	 sub	 esp, 8

; 32   : 	FPU_DOUBLE(x);

  00006	dd 5d f8	 fstp	 QWORD PTR _x$[ebp]
  00009	9b		 fwait

; 33   : 	return cosh(x);

  0000a	dd 45 f8	 fld	 QWORD PTR _x$[ebp]
  0000d	e8 00 00 00 00	 call	 __CIcosh

; 34   : }

  00012	8b e5		 mov	 esp, ebp
  00014	5d		 pop	 ebp
  00015	c3		 ret	 0
__CIcosh ENDP
_TEXT	ENDS
; Function compile flags: /Ogtp
; File c:\users\philip\documents\github\mollenos\clib\crt\msvc\math.c
;	COMDAT __CIsinh
_TEXT	SEGMENT
_x$ = -8						; size = 8
__CIsinh PROC						; COMDAT

; 22   : {

  00000	55		 push	 ebp
  00001	8b ec		 mov	 ebp, esp
  00003	83 ec 08	 sub	 esp, 8

; 23   : 	FPU_DOUBLE(x);

  00006	dd 5d f8	 fstp	 QWORD PTR _x$[ebp]
  00009	9b		 fwait

; 24   : 	return sinh(x);

  0000a	dd 45 f8	 fld	 QWORD PTR _x$[ebp]
  0000d	e8 00 00 00 00	 call	 __CIsinh

; 25   : }

  00012	8b e5		 mov	 esp, ebp
  00014	5d		 pop	 ebp
  00015	c3		 ret	 0
__CIsinh ENDP
_TEXT	ENDS
; Function compile flags: /Ogtp
; File c:\users\philip\documents\github\mollenos\clib\crt\msvc\math.c
;	COMDAT __CItan
_TEXT	SEGMENT
_x$ = -8						; size = 8
__CItan	PROC						; COMDAT

; 13   : {

  00000	55		 push	 ebp
  00001	8b ec		 mov	 ebp, esp
  00003	83 ec 08	 sub	 esp, 8

; 14   : 	FPU_DOUBLE(x);

  00006	dd 5d f8	 fstp	 QWORD PTR _x$[ebp]
  00009	9b		 fwait

; 15   : 	return tan(x);

  0000a	dd 45 f8	 fld	 QWORD PTR _x$[ebp]
  0000d	e8 00 00 00 00	 call	 __CItan

; 16   : }

  00012	8b e5		 mov	 esp, ebp
  00014	5d		 pop	 ebp
  00015	c3		 ret	 0
__CItan	ENDP
_TEXT	ENDS
; Function compile flags: /Ogtp
; File c:\users\philip\documents\github\mollenos\clib\include\math.h
;	COMDAT ___signbitl
_TEXT	SEGMENT
_stw$ = -4						; size = 2
_x$ = 8							; size = 8
___signbitl PROC					; COMDAT

; 269  : __CRT_INLINE int __cdecl __signbitl(long double x) {

  00000	55		 push	 ebp
  00001	8b ec		 mov	 ebp, esp
  00003	51		 push	 ecx

; 270  : 	unsigned short stw;
; 271  : #if defined(_MSC_VER)
; 272  : 	_asm {
; 273  : 		fld [x];

  00004	dd 45 08	 fld	 QWORD PTR _x$[ebp]

; 274  : 		fxam;

  00007	d9 e5		 fxam

; 275  : 		fstsw ax;

  00009	9b df e0	 fstsw	 ax

; 276  : 		mov word ptr[stw], ax;

  0000c	66 89 45 fc	 mov	 WORD PTR _stw$[ebp], ax

; 277  : 	}
; 278  : #else
; 279  : 	__asm__ __volatile__("fxam; fstsw %%ax;": "=a" (stw) : "t" (x));
; 280  : #endif
; 281  : 	return stw & 0x0200;

  00010	0f b7 45 fc	 movzx	 eax, WORD PTR _stw$[ebp]
  00014	25 00 02 00 00	 and	 eax, 512		; 00000200H

; 282  : }

  00019	8b e5		 mov	 esp, ebp
  0001b	5d		 pop	 ebp
  0001c	c3		 ret	 0
___signbitl ENDP
_TEXT	ENDS
; Function compile flags: /Ogtp
; File c:\users\philip\documents\github\mollenos\clib\include\math.h
;	COMDAT ___signbitf
_TEXT	SEGMENT
_stw$ = -4						; size = 2
_x$ = 8							; size = 4
___signbitf PROC					; COMDAT

; 254  : __CRT_INLINE int __cdecl __signbitf(float x) {

  00000	55		 push	 ebp
  00001	8b ec		 mov	 ebp, esp
  00003	51		 push	 ecx

; 255  : 	unsigned short stw;
; 256  : #if defined(_MSC_VER)
; 257  : 	_asm {
; 258  : 		fld [x];

  00004	d9 45 08	 fld	 DWORD PTR _x$[ebp]

; 259  : 		fxam;

  00007	d9 e5		 fxam

; 260  : 		fstsw ax;

  00009	9b df e0	 fstsw	 ax

; 261  : 		mov word ptr[stw], ax;

  0000c	66 89 45 fc	 mov	 WORD PTR _stw$[ebp], ax

; 262  : 	}
; 263  : #else
; 264  : 	__asm__ __volatile__("fxam; fstsw %%ax;": "=a" (stw) : "t" (x));
; 265  : #endif
; 266  : 	return stw & 0x0200;

  00010	0f b7 45 fc	 movzx	 eax, WORD PTR _stw$[ebp]
  00014	25 00 02 00 00	 and	 eax, 512		; 00000200H

; 267  : }

  00019	8b e5		 mov	 esp, ebp
  0001b	5d		 pop	 ebp
  0001c	c3		 ret	 0
___signbitf ENDP
_TEXT	ENDS
; Function compile flags: /Ogtp
; File c:\users\philip\documents\github\mollenos\clib\include\math.h
;	COMDAT ___signbit
_TEXT	SEGMENT
_stw$ = -4						; size = 2
_x$ = 8							; size = 8
___signbit PROC						; COMDAT

; 239  : __CRT_INLINE int __cdecl __signbit(double x) {

  00000	55		 push	 ebp
  00001	8b ec		 mov	 ebp, esp
  00003	51		 push	 ecx

; 240  : 	unsigned short stw;
; 241  : #if defined(_MSC_VER)
; 242  : 	_asm {
; 243  : 		fld [x];

  00004	dd 45 08	 fld	 QWORD PTR _x$[ebp]

; 244  : 		fxam;

  00007	d9 e5		 fxam

; 245  : 		fstsw ax;

  00009	9b df e0	 fstsw	 ax

; 246  : 		mov word ptr[stw], ax;

  0000c	66 89 45 fc	 mov	 WORD PTR _stw$[ebp], ax

; 247  : 	}
; 248  : #else
; 249  : 	__asm__ __volatile__("fxam; fstsw %%ax;": "=a" (stw) : "t" (x));
; 250  : #endif
; 251  : 	return stw & 0x0200;

  00010	0f b7 45 fc	 movzx	 eax, WORD PTR _stw$[ebp]
  00014	25 00 02 00 00	 and	 eax, 512		; 00000200H

; 252  : }

  00019	8b e5		 mov	 esp, ebp
  0001b	5d		 pop	 ebp
  0001c	c3		 ret	 0
___signbit ENDP
_TEXT	ENDS
; Function compile flags: /Ogtp
; File c:\users\philip\documents\github\mollenos\clib\include\math.h
;	COMDAT ___isnanl
_TEXT	SEGMENT
_sw$ = -4						; size = 2
__x$ = 8						; size = 8
___isnanl PROC						; COMDAT

; 209  : {

  00000	55		 push	 ebp
  00001	8b ec		 mov	 ebp, esp
  00003	51		 push	 ecx

; 210  : 	unsigned short sw;
; 211  : #if defined(_MSC_VER)
; 212  : 	_asm {
; 213  : 		fld [_x];

  00004	dd 45 08	 fld	 QWORD PTR __x$[ebp]

; 214  : 		fxam;

  00007	d9 e5		 fxam

; 215  : 		fstsw ax;

  00009	9b df e0	 fstsw	 ax

; 216  : 		mov word ptr[sw], ax;

  0000c	66 89 45 fc	 mov	 WORD PTR _sw$[ebp], ax

; 217  : 	}
; 218  : #else
; 219  : 	__asm__ __volatile__("fxam;"
; 220  : 		"fstsw %%ax": "=a" (sw) : "t" (_x));
; 221  : #endif
; 222  : 	return (sw & (FP_NAN | FP_NORMAL | FP_INFINITE | FP_ZERO | FP_SUBNORMAL))
; 223  : 		== FP_NAN;

  00010	0f b7 4d fc	 movzx	 ecx, WORD PTR _sw$[ebp]
  00014	33 c0		 xor	 eax, eax
  00016	81 e1 00 45 00
	00		 and	 ecx, 17664		; 00004500H
  0001c	81 f9 00 01 00
	00		 cmp	 ecx, 256		; 00000100H
  00022	0f 94 c0	 sete	 al

; 224  : }

  00025	8b e5		 mov	 esp, ebp
  00027	5d		 pop	 ebp
  00028	c3		 ret	 0
___isnanl ENDP
_TEXT	ENDS
; Function compile flags: /Ogtp
; File c:\users\philip\documents\github\mollenos\clib\include\math.h
;	COMDAT ___isnanf
_TEXT	SEGMENT
_sw$ = -4						; size = 2
__x$ = 8						; size = 4
___isnanf PROC						; COMDAT

; 192  : {

  00000	55		 push	 ebp
  00001	8b ec		 mov	 ebp, esp
  00003	51		 push	 ecx

; 193  : 	unsigned short sw;
; 194  : #if defined(_MSC_VER)
; 195  : 	_asm {
; 196  : 		fld [_x];

  00004	d9 45 08	 fld	 DWORD PTR __x$[ebp]

; 197  : 		fxam;

  00007	d9 e5		 fxam

; 198  : 		fstsw ax;

  00009	9b df e0	 fstsw	 ax

; 199  : 		mov word ptr[sw], ax;

  0000c	66 89 45 fc	 mov	 WORD PTR _sw$[ebp], ax

; 200  : 	}
; 201  : #else
; 202  : 	__asm__ __volatile__("fxam;"
; 203  : 		"fstsw %%ax": "=a" (sw) : "t" (_x));
; 204  : #endif
; 205  : 	return (sw & (FP_NAN | FP_NORMAL | FP_INFINITE | FP_ZERO | FP_SUBNORMAL))
; 206  : 		== FP_NAN;

  00010	0f b7 4d fc	 movzx	 ecx, WORD PTR _sw$[ebp]
  00014	33 c0		 xor	 eax, eax
  00016	81 e1 00 45 00
	00		 and	 ecx, 17664		; 00004500H
  0001c	81 f9 00 01 00
	00		 cmp	 ecx, 256		; 00000100H
  00022	0f 94 c0	 sete	 al

; 207  : }

  00025	8b e5		 mov	 esp, ebp
  00027	5d		 pop	 ebp
  00028	c3		 ret	 0
___isnanf ENDP
_TEXT	ENDS
; Function compile flags: /Ogtp
; File c:\users\philip\documents\github\mollenos\clib\include\math.h
;	COMDAT ___isnan
_TEXT	SEGMENT
_sw$ = -4						; size = 2
__x$ = 8						; size = 8
___isnan PROC						; COMDAT

; 175  : {

  00000	55		 push	 ebp
  00001	8b ec		 mov	 ebp, esp
  00003	51		 push	 ecx

; 176  : 	unsigned short sw;
; 177  : #if defined(_MSC_VER)
; 178  : 	_asm {
; 179  : 		fld [_x];

  00004	dd 45 08	 fld	 QWORD PTR __x$[ebp]

; 180  : 		fxam;

  00007	d9 e5		 fxam

; 181  : 		fstsw ax;

  00009	9b df e0	 fstsw	 ax

; 182  : 		mov word ptr[sw], ax;

  0000c	66 89 45 fc	 mov	 WORD PTR _sw$[ebp], ax

; 183  : 	}
; 184  : #else
; 185  : 	__asm__ __volatile__("fxam;"
; 186  : 		"fstsw %%ax": "=a" (sw) : "t" (_x));
; 187  : #endif
; 188  : 	return (sw & (FP_NAN | FP_NORMAL | FP_INFINITE | FP_ZERO | FP_SUBNORMAL))
; 189  : 		== FP_NAN;

  00010	0f b7 4d fc	 movzx	 ecx, WORD PTR _sw$[ebp]
  00014	33 c0		 xor	 eax, eax
  00016	81 e1 00 45 00
	00		 and	 ecx, 17664		; 00004500H
  0001c	81 f9 00 01 00
	00		 cmp	 ecx, 256		; 00000100H
  00022	0f 94 c0	 sete	 al

; 190  : }

  00025	8b e5		 mov	 esp, ebp
  00027	5d		 pop	 ebp
  00028	c3		 ret	 0
___isnan ENDP
_TEXT	ENDS
; Function compile flags: /Ogtp
; File c:\users\philip\documents\github\mollenos\clib\include\math.h
;	COMDAT ___fpclassify
_TEXT	SEGMENT
_sw$ = -4						; size = 2
_x$ = 8							; size = 8
___fpclassify PROC					; COMDAT

; 125  : __CRT_INLINE int __cdecl __fpclassify(double x) {

  00000	55		 push	 ebp
  00001	8b ec		 mov	 ebp, esp
  00003	51		 push	 ecx

; 126  : 	unsigned short sw;
; 127  : #if defined(_MSC_VER)
; 128  : 	_asm {
; 129  : 		fld [x];

  00004	dd 45 08	 fld	 QWORD PTR _x$[ebp]

; 130  : 		fxam;

  00007	d9 e5		 fxam

; 131  : 		fstsw ax;

  00009	9b df e0	 fstsw	 ax

; 132  : 		mov word ptr[sw], ax;

  0000c	66 89 45 fc	 mov	 WORD PTR _sw$[ebp], ax

; 133  : 	}
; 134  : #else
; 135  : 	__asm__ __volatile__("fxam; fstsw %%ax;" : "=a" (sw) : "t" (x));
; 136  : #endif
; 137  : 	return sw & (FP_NAN | FP_NORMAL | FP_ZERO);

  00010	0f b7 45 fc	 movzx	 eax, WORD PTR _sw$[ebp]
  00014	25 00 45 00 00	 and	 eax, 17664		; 00004500H

; 138  : }

  00019	8b e5		 mov	 esp, ebp
  0001b	5d		 pop	 ebp
  0001c	c3		 ret	 0
___fpclassify ENDP
_TEXT	ENDS
; Function compile flags: /Ogtp
; File c:\users\philip\documents\github\mollenos\clib\include\math.h
;	COMDAT ___fpclassifyf
_TEXT	SEGMENT
_sw$ = -4						; size = 2
_x$ = 8							; size = 4
___fpclassifyf PROC					; COMDAT

; 139  : __CRT_INLINE int __cdecl __fpclassifyf(float x) {

  00000	55		 push	 ebp
  00001	8b ec		 mov	 ebp, esp
  00003	51		 push	 ecx

; 140  : 	unsigned short sw;
; 141  : #if defined(_MSC_VER)
; 142  : 	_asm {
; 143  : 		fld [x];

  00004	d9 45 08	 fld	 DWORD PTR _x$[ebp]

; 144  : 		fxam;

  00007	d9 e5		 fxam

; 145  : 		fstsw ax;

  00009	9b df e0	 fstsw	 ax

; 146  : 		mov word ptr[sw], ax;

  0000c	66 89 45 fc	 mov	 WORD PTR _sw$[ebp], ax

; 147  : 	}
; 148  : #else
; 149  : 	__asm__ __volatile__("fxam; fstsw %%ax;" : "=a" (sw) : "t" (x));
; 150  : #endif
; 151  : 	return sw & (FP_NAN | FP_NORMAL | FP_ZERO);

  00010	0f b7 45 fc	 movzx	 eax, WORD PTR _sw$[ebp]
  00014	25 00 45 00 00	 and	 eax, 17664		; 00004500H

; 152  : }

  00019	8b e5		 mov	 esp, ebp
  0001b	5d		 pop	 ebp
  0001c	c3		 ret	 0
___fpclassifyf ENDP
_TEXT	ENDS
; Function compile flags: /Ogtp
; File c:\users\philip\documents\github\mollenos\clib\include\math.h
;	COMDAT ___fpclassifyl
_TEXT	SEGMENT
_sw$ = -4						; size = 2
_x$ = 8							; size = 8
___fpclassifyl PROC					; COMDAT

; 111  : __CRT_INLINE int __cdecl __fpclassifyl(long double x) {

  00000	55		 push	 ebp
  00001	8b ec		 mov	 ebp, esp
  00003	51		 push	 ecx

; 112  : 	unsigned short sw;
; 113  : #if defined(_MSC_VER)
; 114  : 	_asm {
; 115  : 		fld [x];

  00004	dd 45 08	 fld	 QWORD PTR _x$[ebp]

; 116  : 		fxam;

  00007	d9 e5		 fxam

; 117  : 		fstsw ax;

  00009	9b df e0	 fstsw	 ax

; 118  : 		mov word ptr [sw], ax;

  0000c	66 89 45 fc	 mov	 WORD PTR _sw$[ebp], ax

; 119  : 	}
; 120  : #else
; 121  : 	__asm__ __volatile__("fxam; fstsw %%ax;" : "=a" (sw) : "t" (x));
; 122  : #endif
; 123  : 	return sw & (FP_NAN | FP_NORMAL | FP_ZERO);

  00010	0f b7 45 fc	 movzx	 eax, WORD PTR _sw$[ebp]
  00014	25 00 45 00 00	 and	 eax, 17664		; 00004500H

; 124  : }

  00019	8b e5		 mov	 esp, ebp
  0001b	5d		 pop	 ebp
  0001c	c3		 ret	 0
___fpclassifyl ENDP
_TEXT	ENDS
END
