; Listing generated by Microsoft (R) Optimizing Compiler Version 16.00.40219.01 

	TITLE	C:\Users\Phail\Documents\GitHub\MollenOS\clib\crt\math.c
	.686P
	.XMM
	include listing.inc
	.model	flat

INCLUDELIB MSVCRT
INCLUDELIB OLDNAMES

PUBLIC	__CIpow
EXTRN	__fltused:DWORD
EXTRN	__CIpow:PROC
; Function compile flags: /Ogtp
; File c:\users\phail\documents\github\mollenos\clib\crt\math.c
;	COMDAT __CIpow
_TEXT	SEGMENT
_x$ = -16						; size = 8
_y$ = -8						; size = 8
__CIpow	PROC						; COMDAT

; 11   : {

  00000	55		 push	 ebp
  00001	8b ec		 mov	 ebp, esp
  00003	83 ec 10	 sub	 esp, 16			; 00000010H

; 12   : 	FPU_DOUBLES(x, y);

  00006	dd 5d f0	 fstp	 QWORD PTR _x$[ebp]
  00009	9b		 fwait
  0000a	dd 5d f8	 fstp	 QWORD PTR _y$[ebp]
  0000d	9b		 fwait

; 13   : 	return pow(x, y);

  0000e	dd 45 f0	 fld	 QWORD PTR _x$[ebp]
  00011	dd 45 f8	 fld	 QWORD PTR _y$[ebp]
  00014	e8 00 00 00 00	 call	 __CIpow

; 14   : }

  00019	8b e5		 mov	 esp, ebp
  0001b	5d		 pop	 ebp
  0001c	c3		 ret	 0
__CIpow	ENDP
_TEXT	ENDS
PUBLIC	__CIsinh
EXTRN	__CIsinh:PROC
; Function compile flags: /Ogtp
;	COMDAT __CIsinh
_TEXT	SEGMENT
_x$ = -8						; size = 8
__CIsinh PROC						; COMDAT

; 29   : {

  00000	55		 push	 ebp
  00001	8b ec		 mov	 ebp, esp
  00003	83 ec 08	 sub	 esp, 8

; 30   : 	FPU_DOUBLE(x);

  00006	dd 5d f8	 fstp	 QWORD PTR _x$[ebp]
  00009	9b		 fwait

; 31   : 	return sinh(x);

  0000a	dd 45 f8	 fld	 QWORD PTR _x$[ebp]
  0000d	e8 00 00 00 00	 call	 __CIsinh

; 32   : }

  00012	8b e5		 mov	 esp, ebp
  00014	5d		 pop	 ebp
  00015	c3		 ret	 0
__CIsinh ENDP
_TEXT	ENDS
PUBLIC	__CIcosh
EXTRN	__CIcosh:PROC
; Function compile flags: /Ogtp
;	COMDAT __CIcosh
_TEXT	SEGMENT
_x$ = -8						; size = 8
__CIcosh PROC						; COMDAT

; 38   : {

  00000	55		 push	 ebp
  00001	8b ec		 mov	 ebp, esp
  00003	83 ec 08	 sub	 esp, 8

; 39   : 	FPU_DOUBLE(x);

  00006	dd 5d f8	 fstp	 QWORD PTR _x$[ebp]
  00009	9b		 fwait

; 40   : 	return cosh(x);

  0000a	dd 45 f8	 fld	 QWORD PTR _x$[ebp]
  0000d	e8 00 00 00 00	 call	 __CIcosh

; 41   : }

  00012	8b e5		 mov	 esp, ebp
  00014	5d		 pop	 ebp
  00015	c3		 ret	 0
__CIcosh ENDP
_TEXT	ENDS
PUBLIC	__CItanh
EXTRN	__CItanh:PROC
; Function compile flags: /Ogtp
;	COMDAT __CItanh
_TEXT	SEGMENT
_x$ = -8						; size = 8
__CItanh PROC						; COMDAT

; 47   : {

  00000	55		 push	 ebp
  00001	8b ec		 mov	 ebp, esp
  00003	83 ec 08	 sub	 esp, 8

; 48   : 	FPU_DOUBLE(x);

  00006	dd 5d f8	 fstp	 QWORD PTR _x$[ebp]
  00009	9b		 fwait

; 49   : 	return tanh(x);

  0000a	dd 45 f8	 fld	 QWORD PTR _x$[ebp]
  0000d	e8 00 00 00 00	 call	 __CItanh

; 50   : }

  00012	8b e5		 mov	 esp, ebp
  00014	5d		 pop	 ebp
  00015	c3		 ret	 0
__CItanh ENDP
_TEXT	ENDS
PUBLIC	__CIexp
EXTRN	__CIexp:PROC
; Function compile flags: /Ogtp
;	COMDAT __CIexp
_TEXT	SEGMENT
_x$ = -8						; size = 8
__CIexp	PROC						; COMDAT

; 92   : {

  00000	55		 push	 ebp
  00001	8b ec		 mov	 ebp, esp
  00003	83 ec 08	 sub	 esp, 8

; 93   : 	FPU_DOUBLE(x);

  00006	dd 5d f8	 fstp	 QWORD PTR _x$[ebp]
  00009	9b		 fwait

; 94   : 	return exp(x);

  0000a	dd 45 f8	 fld	 QWORD PTR _x$[ebp]
  0000d	e8 00 00 00 00	 call	 __CIexp

; 95   : }

  00012	8b e5		 mov	 esp, ebp
  00014	5d		 pop	 ebp
  00015	c3		 ret	 0
__CIexp	ENDP
_TEXT	ENDS
PUBLIC	__CIlog10
EXTRN	__CIlog10:PROC
; Function compile flags: /Ogtp
;	COMDAT __CIlog10
_TEXT	SEGMENT
_x$ = -8						; size = 8
__CIlog10 PROC						; COMDAT

; 101  : {

  00000	55		 push	 ebp
  00001	8b ec		 mov	 ebp, esp
  00003	83 ec 08	 sub	 esp, 8

; 102  : 	FPU_DOUBLE(x);

  00006	dd 5d f8	 fstp	 QWORD PTR _x$[ebp]
  00009	9b		 fwait

; 103  : 	return log10(x);

  0000a	dd 45 f8	 fld	 QWORD PTR _x$[ebp]
  0000d	e8 00 00 00 00	 call	 __CIlog10

; 104  : }

  00012	8b e5		 mov	 esp, ebp
  00014	5d		 pop	 ebp
  00015	c3		 ret	 0
__CIlog10 ENDP
_TEXT	ENDS
PUBLIC	__CIcos
EXTRN	__CIcos:PROC
; Function compile flags: /Ogtp
;	COMDAT __CIcos
_TEXT	SEGMENT
_x$ = -8						; size = 8
__CIcos	PROC						; COMDAT

; 119  : {

  00000	55		 push	 ebp
  00001	8b ec		 mov	 ebp, esp
  00003	83 ec 08	 sub	 esp, 8

; 120  : 	FPU_DOUBLE(x);

  00006	dd 5d f8	 fstp	 QWORD PTR _x$[ebp]
  00009	9b		 fwait

; 121  : 	return cos(x);

  0000a	dd 45 f8	 fld	 QWORD PTR _x$[ebp]
  0000d	e8 00 00 00 00	 call	 __CIcos

; 122  : }

  00012	8b e5		 mov	 esp, ebp
  00014	5d		 pop	 ebp
  00015	c3		 ret	 0
__CIcos	ENDP
_TEXT	ENDS
PUBLIC	__CIlog
EXTRN	__CIlog:PROC
; Function compile flags: /Ogtp
;	COMDAT __CIlog
_TEXT	SEGMENT
_x$ = -8						; size = 8
__CIlog	PROC						; COMDAT

; 128  : {

  00000	55		 push	 ebp
  00001	8b ec		 mov	 ebp, esp
  00003	83 ec 08	 sub	 esp, 8

; 129  : 	FPU_DOUBLE(x);

  00006	dd 5d f8	 fstp	 QWORD PTR _x$[ebp]
  00009	9b		 fwait

; 130  : 	return log(x);

  0000a	dd 45 f8	 fld	 QWORD PTR _x$[ebp]
  0000d	e8 00 00 00 00	 call	 __CIlog

; 131  : }

  00012	8b e5		 mov	 esp, ebp
  00014	5d		 pop	 ebp
  00015	c3		 ret	 0
__CIlog	ENDP
_TEXT	ENDS
PUBLIC	__CIsin
EXTRN	__CIsin:PROC
; Function compile flags: /Ogtp
;	COMDAT __CIsin
_TEXT	SEGMENT
_x$ = -8						; size = 8
__CIsin	PROC						; COMDAT

; 137  : {

  00000	55		 push	 ebp
  00001	8b ec		 mov	 ebp, esp
  00003	83 ec 08	 sub	 esp, 8

; 138  : 	FPU_DOUBLE(x);

  00006	dd 5d f8	 fstp	 QWORD PTR _x$[ebp]
  00009	9b		 fwait

; 139  : 	return sin(x);

  0000a	dd 45 f8	 fld	 QWORD PTR _x$[ebp]
  0000d	e8 00 00 00 00	 call	 __CIsin

; 140  : }

  00012	8b e5		 mov	 esp, ebp
  00014	5d		 pop	 ebp
  00015	c3		 ret	 0
__CIsin	ENDP
_TEXT	ENDS
PUBLIC	__CIsqrt
EXTRN	__CIsqrt:PROC
; Function compile flags: /Ogtp
;	COMDAT __CIsqrt
_TEXT	SEGMENT
_x$ = -8						; size = 8
__CIsqrt PROC						; COMDAT

; 146  : {

  00000	55		 push	 ebp
  00001	8b ec		 mov	 ebp, esp
  00003	83 ec 08	 sub	 esp, 8

; 147  : 	FPU_DOUBLE(x);

  00006	dd 5d f8	 fstp	 QWORD PTR _x$[ebp]
  00009	9b		 fwait

; 148  : 	return sqrt(x);

  0000a	dd 45 f8	 fld	 QWORD PTR _x$[ebp]
  0000d	e8 00 00 00 00	 call	 __CIsqrt

; 149  : }

  00012	8b e5		 mov	 esp, ebp
  00014	5d		 pop	 ebp
  00015	c3		 ret	 0
__CIsqrt ENDP
_TEXT	ENDS
END
