; Listing generated by Microsoft (R) Optimizing Compiler Version 18.00.31101.0 

	TITLE	C:\Users\Philip\Documents\GitHub\MollenOS\clib\src\math\modf.c
	.686P
	.XMM
	include listing.inc
	.model	flat

INCLUDELIB MSVCRT
INCLUDELIB OLDNAMES

CONST	SEGMENT
_one	DQ	03ff0000000000000r		; 1
CONST	ENDS
PUBLIC	_modf
EXTRN	__fltused:DWORD
; Function compile flags: /Ogtp
; File c:\users\philip\documents\github\mollenos\clib\src\math\modf.c
;	COMDAT _modf
_TEXT	SEGMENT
_iw_u$1 = 8						; size = 8
_iw_u$2 = 8						; size = 8
_gh_u$3 = 8						; size = 8
_iw_u$4 = 8						; size = 8
_iw_u$5 = 8						; size = 8
_gh_u$6 = 8						; size = 8
_iw_u$7 = 8						; size = 8
_ew_u$8 = 8						; size = 8
_x$ = 8							; size = 8
_iptr$ = 16						; size = 4
_modf	PROC						; COMDAT

; 88   : {

  00000	55		 push	 ebp
  00001	8b ec		 mov	 ebp, esp

; 89   : 	__int32_t i0,i1,j_0;
; 90   : 	__uint32_t i;
; 91   : 	EXTRACT_WORDS(i0,i1,x);

  00003	dd 45 08	 fld	 QWORD PTR _x$[ebp]
  00006	dd 55 08	 fst	 QWORD PTR _ew_u$8[ebp]

; 92   : 	j_0 = ((i0>>20)&0x7ff)-0x3ff;	/* exponent of x */

  00009	8b 55 0c	 mov	 edx, DWORD PTR _ew_u$8[ebp+4]
  0000c	8b ca		 mov	 ecx, edx
  0000e	c1 f9 14	 sar	 ecx, 20			; 00000014H
  00011	81 e1 ff 07 00
	00		 and	 ecx, 2047		; 000007ffH
  00017	81 e9 ff 03 00
	00		 sub	 ecx, 1023		; 000003ffH

; 93   : 	if(j_0<20) {			/* integer part in high x */

  0001d	83 f9 14	 cmp	 ecx, 20			; 00000014H
  00020	7d 63		 jge	 SHORT $LN37@modf

; 94   : 		if(j_0<0) {			/* |x|<1 */

  00022	85 c9		 test	 ecx, ecx
  00024	79 1a		 jns	 SHORT $LN36@modf

; 95   : 			INSERT_WORDS(*iptr,i0&0x80000000U,0);	/* *iptr = +-0 */

  00026	8b 45 10	 mov	 eax, DWORD PTR _iptr$[ebp]
  00029	81 e2 00 00 00
	80		 and	 edx, -2147483648	; 80000000H
  0002f	89 55 0c	 mov	 DWORD PTR _iw_u$7[ebp+4], edx
  00032	c7 45 08 00 00
	00 00		 mov	 DWORD PTR _iw_u$7[ebp], 0
  00039	dd 45 08	 fld	 QWORD PTR _iw_u$7[ebp]
  0003c	dd 18		 fstp	 QWORD PTR [eax]

; 127  : 		}
; 128  : 	}
; 129  : }

  0003e	5d		 pop	 ebp
  0003f	c3		 ret	 0
$LN36@modf:
  00040	56		 push	 esi

; 96   : 			return x;
; 97   : 		} else {
; 98   : 			i = (0x000fffff)>>j_0;

  00041	be ff ff 0f 00	 mov	 esi, 1048575		; 000fffffH
  00046	d3 fe		 sar	 esi, cl

; 99   : 			if(((i0&i)|i1)==0) {		/* x is integral */

  00048	8b c6		 mov	 eax, esi
  0004a	23 c2		 and	 eax, edx
  0004c	0b 45 08	 or	 eax, DWORD PTR _ew_u$8[ebp]

; 100  : 				__uint32_t high;
; 101  : 				*iptr = x;

  0004f	8b 45 10	 mov	 eax, DWORD PTR _iptr$[ebp]
  00052	75 19		 jne	 SHORT $LN23@modf
  00054	dd 10		 fst	 QWORD PTR [eax]

; 102  : 				GET_HIGH_WORD(high,x);

  00056	dd 5d 08	 fstp	 QWORD PTR _gh_u$6[ebp]

; 103  : 				INSERT_WORDS(x,high&0x80000000U,0);	/* return +-0 */

  00059	81 65 0c 00 00
	00 80		 and	 DWORD PTR _gh_u$6[ebp+4], -2147483648 ; 80000000H
  00060	c7 45 08 00 00
	00 00		 mov	 DWORD PTR _iw_u$5[ebp], 0

; 104  : 				return x;

  00067	dd 45 08	 fld	 QWORD PTR _iw_u$5[ebp]
  0006a	5e		 pop	 esi

; 127  : 		}
; 128  : 	}
; 129  : }

  0006b	5d		 pop	 ebp
  0006c	c3		 ret	 0
$LN23@modf:

; 105  : 			} else {
; 106  : 				INSERT_WORDS(*iptr,i0&(~i),0);

  0006d	f7 d6		 not	 esi
  0006f	c7 45 08 00 00
	00 00		 mov	 DWORD PTR _iw_u$4[ebp], 0
  00076	23 f2		 and	 esi, edx
  00078	89 75 0c	 mov	 DWORD PTR _iw_u$4[ebp+4], esi
  0007b	dd 45 08	 fld	 QWORD PTR _iw_u$4[ebp]
  0007e	dd 10		 fst	 QWORD PTR [eax]

; 107  : 				return x - *iptr;

  00080	de e9		 fsubp	 ST(1), ST(0)
  00082	5e		 pop	 esi

; 127  : 		}
; 128  : 	}
; 129  : }

  00083	5d		 pop	 ebp
  00084	c3		 ret	 0
$LN37@modf:

; 108  : 			}
; 109  : 		}
; 110  : 	} else if (j_0>51) {		/* no fraction part */

  00085	83 f9 33	 cmp	 ecx, 51			; 00000033H
  00088	7e 1b		 jle	 SHORT $LN19@modf
$LN59@modf:

; 111  : 		__uint32_t high;
; 112  : 		*iptr = x*one;

  0008a	8b 45 10	 mov	 eax, DWORD PTR _iptr$[ebp]
  0008d	dd 10		 fst	 QWORD PTR [eax]

; 113  : 		GET_HIGH_WORD(high,x);

  0008f	dd 5d 08	 fstp	 QWORD PTR _gh_u$3[ebp]

; 114  : 		INSERT_WORDS(x,high&0x80000000U,0);	/* return +-0 */

  00092	81 65 0c 00 00
	00 80		 and	 DWORD PTR _gh_u$3[ebp+4], -2147483648 ; 80000000H
  00099	c7 45 08 00 00
	00 00		 mov	 DWORD PTR _iw_u$2[ebp], 0

; 115  : 		return x;

  000a0	dd 45 08	 fld	 QWORD PTR _iw_u$2[ebp]

; 127  : 		}
; 128  : 	}
; 129  : }

  000a3	5d		 pop	 ebp
  000a4	c3		 ret	 0
$LN19@modf:

; 116  : 	} else {			/* fraction part in low x */
; 117  : 		i = ((__uint32_t)(0xffffffffU))>>(j_0-20);

  000a5	83 c1 ec	 add	 ecx, -20		; ffffffecH
  000a8	83 c8 ff	 or	 eax, -1
  000ab	d3 e8		 shr	 eax, cl

; 118  : 		if((i1&i)==0) { 		/* x is integral */

  000ad	8b 4d 08	 mov	 ecx, DWORD PTR _ew_u$8[ebp]
  000b0	85 c1		 test	 eax, ecx
  000b2	74 d6		 je	 SHORT $LN59@modf

; 119  : 			__uint32_t high;
; 120  : 			*iptr = x;
; 121  : 			GET_HIGH_WORD(high,x);
; 122  : 			INSERT_WORDS(x,high&0x80000000U,0);	/* return +-0 */
; 123  : 			return x;
; 124  : 		} else {
; 125  : 			INSERT_WORDS(*iptr,i0,i1&(~i));

  000b4	f7 d0		 not	 eax
  000b6	89 55 0c	 mov	 DWORD PTR _iw_u$1[ebp+4], edx
  000b9	23 c1		 and	 eax, ecx
  000bb	89 45 08	 mov	 DWORD PTR _iw_u$1[ebp], eax
  000be	8b 45 10	 mov	 eax, DWORD PTR _iptr$[ebp]
  000c1	dd 45 08	 fld	 QWORD PTR _iw_u$1[ebp]
  000c4	dd 10		 fst	 QWORD PTR [eax]

; 126  : 			return x - *iptr;

  000c6	de e9		 fsubp	 ST(1), ST(0)

; 127  : 		}
; 128  : 	}
; 129  : }

  000c8	5d		 pop	 ebp
  000c9	c3		 ret	 0
_modf	ENDP
_TEXT	ENDS
END
