; Listing generated by Microsoft (R) Optimizing Compiler Version 16.00.40219.01 

	TITLE	C:\Users\Phail\Documents\GitHub\MollenOS\clib\src\math\modf.c
	.686P
	.XMM
	include listing.inc
	.model	flat

INCLUDELIB MSVCRT
INCLUDELIB OLDNAMES

CONST	SEGMENT
_one	DQ	03ff0000000000000r		; 1
CONST	ENDS
PUBLIC	_modf
EXTRN	__fltused:DWORD
; Function compile flags: /Ogtp
; File c:\users\phail\documents\github\mollenos\clib\src\math\modf.c
;	COMDAT _modf
_TEXT	SEGMENT
_iw_u$1691 = 8						; size = 8
_iw_u$1686 = 8						; size = 8
_gh_u$1682 = 8						; size = 8
_iw_u$1663 = 8						; size = 8
_iw_u$1658 = 8						; size = 8
_gh_u$1654 = 8						; size = 8
_iw_u$1647 = 8						; size = 8
_ew_u$1641 = 8						; size = 8
_x$ = 8							; size = 8
_iptr$ = 16						; size = 4
_modf	PROC						; COMDAT

; 88   : {

  00000	55		 push	 ebp
  00001	8b ec		 mov	 ebp, esp

; 89   : 	__int32_t i0,i1,j_0;
; 90   : 	__uint32_t i;
; 91   : 	EXTRACT_WORDS(i0,i1,x);

  00003	dd 45 08	 fld	 QWORD PTR _x$[ebp]
  00006	dd 55 08	 fst	 QWORD PTR _ew_u$1641[ebp]

; 92   : 	j_0 = ((i0>>20)&0x7ff)-0x3ff;	/* exponent of x */

  00009	8b 55 0c	 mov	 edx, DWORD PTR _ew_u$1641[ebp+4]
  0000c	8b ca		 mov	 ecx, edx
  0000e	c1 f9 14	 sar	 ecx, 20			; 00000014H
  00011	81 e1 ff 07 00
	00		 and	 ecx, 2047		; 000007ffH
  00017	81 e9 ff 03 00
	00		 sub	 ecx, 1023		; 000003ffH

; 93   : 	if(j_0<20) {			/* integer part in high x */

  0001d	83 f9 14	 cmp	 ecx, 20			; 00000014H
  00020	7d 67		 jge	 SHORT $LN37@modf

; 94   : 		if(j_0<0) {			/* |x|<1 */

  00022	85 c9		 test	 ecx, ecx
  00024	79 1a		 jns	 SHORT $LN36@modf

; 95   : 			INSERT_WORDS(*iptr,i0&0x80000000U,0);	/* *iptr = +-0 */

  00026	8b 45 10	 mov	 eax, DWORD PTR _iptr$[ebp]
  00029	81 e2 00 00 00
	80		 and	 edx, -2147483648	; 80000000H
  0002f	89 55 0c	 mov	 DWORD PTR _iw_u$1647[ebp+4], edx
  00032	c7 45 08 00 00
	00 00		 mov	 DWORD PTR _iw_u$1647[ebp], 0
  00039	dd 45 08	 fld	 QWORD PTR _iw_u$1647[ebp]
  0003c	dd 18		 fstp	 QWORD PTR [eax]

; 127  : 		}
; 128  : 	}
; 129  : }

  0003e	5d		 pop	 ebp
  0003f	c3		 ret	 0
$LN36@modf:

; 96   : 			return x;
; 97   : 		} else {
; 98   : 			i = (0x000fffff)>>j_0;

  00040	b8 ff ff 0f 00	 mov	 eax, 1048575		; 000fffffH
  00045	d3 f8		 sar	 eax, cl

; 99   : 			if(((i0&i)|i1)==0) {		/* x is integral */

  00047	8b c8		 mov	 ecx, eax
  00049	23 ca		 and	 ecx, edx
  0004b	0b 4d 08	 or	 ecx, DWORD PTR _ew_u$1641[ebp]
  0004e	75 1f		 jne	 SHORT $LN23@modf
$LN59@modf:

; 100  : 				__uint32_t high;
; 101  : 				*iptr = x;

  00050	8b 55 10	 mov	 edx, DWORD PTR _iptr$[ebp]
  00053	dd 12		 fst	 QWORD PTR [edx]

; 102  : 				GET_HIGH_WORD(high,x);

  00055	dd 5d 08	 fstp	 QWORD PTR _gh_u$1654[ebp]

; 103  : 				INSERT_WORDS(x,high&0x80000000U,0);	/* return +-0 */

  00058	c7 45 08 00 00
	00 00		 mov	 DWORD PTR _iw_u$1658[ebp], 0
  0005f	8b 45 0c	 mov	 eax, DWORD PTR _gh_u$1654[ebp+4]
  00062	25 00 00 00 80	 and	 eax, -2147483648	; 80000000H
  00067	89 45 0c	 mov	 DWORD PTR _iw_u$1658[ebp+4], eax

; 104  : 				return x;

  0006a	dd 45 08	 fld	 QWORD PTR _iw_u$1658[ebp]

; 127  : 		}
; 128  : 	}
; 129  : }

  0006d	5d		 pop	 ebp
  0006e	c3		 ret	 0
$LN23@modf:

; 105  : 			} else {
; 106  : 				INSERT_WORDS(*iptr,i0&(~i),0);

  0006f	8b 4d 10	 mov	 ecx, DWORD PTR _iptr$[ebp]
  00072	f7 d0		 not	 eax
  00074	23 c2		 and	 eax, edx
  00076	89 45 0c	 mov	 DWORD PTR _iw_u$1663[ebp+4], eax
  00079	c7 45 08 00 00
	00 00		 mov	 DWORD PTR _iw_u$1663[ebp], 0
  00080	dd 45 08	 fld	 QWORD PTR _iw_u$1663[ebp]
  00083	dd 11		 fst	 QWORD PTR [ecx]

; 126  : 			return x - *iptr;

  00085	de e9		 fsubp	 ST(1), ST(0)

; 127  : 		}
; 128  : 	}
; 129  : }

  00087	5d		 pop	 ebp
  00088	c3		 ret	 0
$LN37@modf:

; 107  : 				return x - *iptr;
; 108  : 			}
; 109  : 		}
; 110  : 	} else if (j_0>51) {		/* no fraction part */

  00089	83 f9 33	 cmp	 ecx, 51			; 00000033H

; 111  : 		__uint32_t high;
; 112  : 		*iptr = x*one;
; 113  : 		GET_HIGH_WORD(high,x);
; 114  : 		INSERT_WORDS(x,high&0x80000000U,0);	/* return +-0 */
; 115  : 		return x;

  0008c	7f c2		 jg	 SHORT $LN59@modf

; 116  : 	} else {			/* fraction part in low x */
; 117  : 		i = ((__uint32_t)(0xffffffffU))>>(j_0-20);

  0008e	83 c1 ec	 add	 ecx, -20		; ffffffecH
  00091	83 c8 ff	 or	 eax, -1
  00094	d3 e8		 shr	 eax, cl

; 118  : 		if((i1&i)==0) { 		/* x is integral */

  00096	8b 4d 08	 mov	 ecx, DWORD PTR _ew_u$1641[ebp]
  00099	85 c1		 test	 eax, ecx
  0009b	75 20		 jne	 SHORT $LN3@modf

; 119  : 			__uint32_t high;
; 120  : 			*iptr = x;

  0009d	8b 4d 10	 mov	 ecx, DWORD PTR _iptr$[ebp]
  000a0	dd 11		 fst	 QWORD PTR [ecx]

; 121  : 			GET_HIGH_WORD(high,x);

  000a2	dd 5d 08	 fstp	 QWORD PTR _gh_u$1682[ebp]

; 122  : 			INSERT_WORDS(x,high&0x80000000U,0);	/* return +-0 */

  000a5	c7 45 08 00 00
	00 00		 mov	 DWORD PTR _iw_u$1686[ebp], 0
  000ac	8b 55 0c	 mov	 edx, DWORD PTR _gh_u$1682[ebp+4]
  000af	81 e2 00 00 00
	80		 and	 edx, -2147483648	; 80000000H
  000b5	89 55 0c	 mov	 DWORD PTR _iw_u$1686[ebp+4], edx

; 123  : 			return x;

  000b8	dd 45 08	 fld	 QWORD PTR _iw_u$1686[ebp]

; 127  : 		}
; 128  : 	}
; 129  : }

  000bb	5d		 pop	 ebp
  000bc	c3		 ret	 0
$LN3@modf:

; 124  : 		} else {
; 125  : 			INSERT_WORDS(*iptr,i0,i1&(~i));

  000bd	f7 d0		 not	 eax
  000bf	23 c1		 and	 eax, ecx
  000c1	89 45 08	 mov	 DWORD PTR _iw_u$1691[ebp], eax
  000c4	8b 45 10	 mov	 eax, DWORD PTR _iptr$[ebp]
  000c7	89 55 0c	 mov	 DWORD PTR _iw_u$1691[ebp+4], edx
  000ca	dd 45 08	 fld	 QWORD PTR _iw_u$1691[ebp]
  000cd	dd 10		 fst	 QWORD PTR [eax]

; 126  : 			return x - *iptr;

  000cf	de e9		 fsubp	 ST(1), ST(0)

; 127  : 		}
; 128  : 	}
; 129  : }

  000d1	5d		 pop	 ebp
  000d2	c3		 ret	 0
_modf	ENDP
_TEXT	ENDS
END
