; Listing generated by Microsoft (R) Optimizing Compiler Version 18.00.31101.0 

	TITLE	C:\Users\Philip\Documents\GitHub\MollenOS\clib\src\stdio\snprintf.c
	.686P
	.XMM
	include listing.inc
	.model	flat

INCLUDELIB MSVCRT
INCLUDELIB OLDNAMES

PUBLIC	_snprintf
EXTRN	_streamout:PROC
; Function compile flags: /Ogtp
; File c:\users\philip\documents\github\mollenos\clib\src\stdio\snprintf.c
;	COMDAT _snprintf
_TEXT	SEGMENT
_str$ = 8						; size = 4
_size$ = 12						; size = 4
_format$ = 16						; size = 4
_snprintf PROC						; COMDAT

; 17   : {

  00000	55		 push	 ebp
  00001	8b ec		 mov	 ebp, esp

; 18   : 	va_list args;
; 19   : 
; 20   : 	if(format == NULL || str == NULL)

  00003	8b 45 10	 mov	 eax, DWORD PTR _format$[ebp]
  00006	85 c0		 test	 eax, eax
  00008	74 1c		 je	 SHORT $LN1@snprintf
  0000a	83 7d 08 00	 cmp	 DWORD PTR _str$[ebp], 0
  0000e	74 16		 je	 SHORT $LN1@snprintf

; 22   : 
; 23   : 	va_start( args, format );
; 24   : 	return streamout( &str, size, format, args );

  00010	8d 4d 14	 lea	 ecx, DWORD PTR _format$[ebp+4]
  00013	51		 push	 ecx
  00014	50		 push	 eax
  00015	ff 75 0c	 push	 DWORD PTR _size$[ebp]
  00018	8d 45 08	 lea	 eax, DWORD PTR _str$[ebp]
  0001b	50		 push	 eax
  0001c	e8 00 00 00 00	 call	 _streamout
  00021	83 c4 10	 add	 esp, 16			; 00000010H

; 25   : }

  00024	5d		 pop	 ebp
  00025	c3		 ret	 0
$LN1@snprintf:

; 21   : 		return -1;

  00026	83 c8 ff	 or	 eax, -1

; 25   : }

  00029	5d		 pop	 ebp
  0002a	c3		 ret	 0
_snprintf ENDP
_TEXT	ENDS
END
