; Listing generated by Microsoft (R) Optimizing Compiler Version 18.00.31101.0 

	TITLE	C:\Users\Philip\Documents\GitHub\MollenOS\clib\src\string\strlen.c
	.686P
	.XMM
	include listing.inc
	.model	flat

INCLUDELIB MSVCRT
INCLUDELIB OLDNAMES

PUBLIC	_strlen
; Function compile flags: /Ogtp
; File c:\users\philip\documents\github\mollenos\clib\src\string\strlen.c
;	COMDAT _strlen
_TEXT	SEGMENT
_str$ = 8						; size = 4
_strlen	PROC						; COMDAT

; 30   : {

  00000	55		 push	 ebp
  00001	8b ec		 mov	 ebp, esp

; 31   : 	const char *start = str;

  00003	8b 45 08	 mov	 eax, DWORD PTR _str$[ebp]
  00006	56		 push	 esi
  00007	8b f0		 mov	 esi, eax

; 32   : 	unsigned long *aligned_addr;
; 33   : 
; 34   : 	/* Align the pointer, so we can search a word at a time.  */
; 35   : 	while (UNALIGNED (str))

  00009	a8 03		 test	 al, 3
  0000b	74 0d		 je	 SHORT $LN6@strlen
  0000d	8d 49 00	 npad	 3
$LL7@strlen:

; 36   : 	{
; 37   : 		if (!*str)

  00010	80 38 00	 cmp	 BYTE PTR [eax], 0
  00013	74 41		 je	 SHORT $LN1@strlen

; 38   : 			return str - start;
; 39   : 		str++;

  00015	40		 inc	 eax
  00016	a8 03		 test	 al, 3
  00018	75 f6		 jne	 SHORT $LL7@strlen
$LN6@strlen:

; 40   : 	}
; 41   : 
; 42   : 	/* If the string is word-aligned, we can check for the presence of
; 43   : 		a null in each word-sized block.  */
; 44   : 	aligned_addr = (unsigned long *)str;
; 45   : 	while (!DETECTNULL (*aligned_addr))

  0001a	8b 10		 mov	 edx, DWORD PTR [eax]
  0001c	8d 8a ff fe fe
	fe		 lea	 ecx, DWORD PTR [edx-16843009]
  00022	f7 d2		 not	 edx
  00024	23 ca		 and	 ecx, edx
  00026	f7 c1 80 80 80
	80		 test	 ecx, -2139062144	; 80808080H
  0002c	75 1a		 jne	 SHORT $LN3@strlen
  0002e	8b ff		 npad	 2
$LL4@strlen:
  00030	8b 50 04	 mov	 edx, DWORD PTR [eax+4]

; 46   : 	aligned_addr++;

  00033	83 c0 04	 add	 eax, 4
  00036	8d 8a ff fe fe
	fe		 lea	 ecx, DWORD PTR [edx-16843009]
  0003c	f7 d2		 not	 edx
  0003e	23 ca		 and	 ecx, edx
  00040	f7 c1 80 80 80
	80		 test	 ecx, -2139062144	; 80808080H
  00046	74 e8		 je	 SHORT $LL4@strlen
$LN3@strlen:

; 47   : 
; 48   : 	/* Once a null is detected, we check each byte in that block for a
; 49   : 		precise position of the null.  */
; 50   : 	str = (char *) aligned_addr;
; 51   : 
; 52   : 	while (*str)

  00048	80 38 00	 cmp	 BYTE PTR [eax], 0
  0004b	74 09		 je	 SHORT $LN1@strlen
  0004d	8d 49 00	 npad	 3
$LL2@strlen:

; 53   : 		str++;

  00050	40		 inc	 eax
  00051	80 38 00	 cmp	 BYTE PTR [eax], 0
  00054	75 fa		 jne	 SHORT $LL2@strlen
$LN1@strlen:

; 54   : 
; 55   : 	return str - start;

  00056	2b c6		 sub	 eax, esi
  00058	5e		 pop	 esi

; 56   : }

  00059	5d		 pop	 ebp
  0005a	c3		 ret	 0
_strlen	ENDP
_TEXT	ENDS
END
