; Listing generated by Microsoft (R) Optimizing Compiler Version 16.00.40219.01 

	TITLE	C:\Users\Phail\Documents\GitHub\MollenOS\clib\src\string\strtol.c
	.686P
	.XMM
	include listing.inc
	.model	flat

INCLUDELIB MSVCRT
INCLUDELIB OLDNAMES

PUBLIC	_strtol
EXTRN	___errno:PROC
EXTRN	__ctype:BYTE
; Function compile flags: /Ogtp
; File c:\users\phail\documents\github\mollenos\clib\src\string\strtol.c
;	COMDAT _strtol
_TEXT	SEGMENT
tv215 = -16						; size = 4
tv307 = -12						; size = 4
_neg$ = -8						; size = 4
_any$ = -4						; size = 4
_nptr$ = 8						; size = 4
_endptr$ = 12						; size = 4
_base$ = 16						; size = 4
_strtol	PROC						; COMDAT

; 8    : {

  00000	55		 push	 ebp
  00001	8b ec		 mov	 ebp, esp
  00003	83 ec 10	 sub	 esp, 16			; 00000010H
  00006	56		 push	 esi
  00007	57		 push	 edi

; 9    :   const char *s = nptr;

  00008	8b 7d 08	 mov	 edi, DWORD PTR _nptr$[ebp]

; 10   :   unsigned long acc;
; 11   :   int c;
; 12   :   unsigned long cutoff;
; 13   :   int neg = 0, any, cutlim;

  0000b	c7 45 f8 00 00
	00 00		 mov	 DWORD PTR _neg$[ebp], 0
  00012	b0 20		 mov	 al, 32			; 00000020H
$LL25@strtol:

; 14   : 
; 15   :   /*
; 16   :    * Skip white space and pick up leading +/- sign if any.
; 17   :    * If base is 0, allow 0x for hex and 0 for octal, else
; 18   :    * assume decimal; if base is already 16, allow 0x.
; 19   :    */
; 20   :   do {
; 21   :     c = *s++;

  00014	0f be 0f	 movsx	 ecx, BYTE PTR [edi]

; 22   :   } while (isspace(c));

  00017	0f b6 d1	 movzx	 edx, cl
  0001a	47		 inc	 edi
  0001b	84 82 00 00 00
	00		 test	 BYTE PTR __ctype[edx], al
  00021	75 f1		 jne	 SHORT $LL25@strtol

; 23   :   if (c == '-')

  00023	83 f9 2d	 cmp	 ecx, 45			; 0000002dH
  00026	75 09		 jne	 SHORT $LN22@strtol

; 24   :   {
; 25   :     neg = 1;

  00028	c7 45 f8 01 00
	00 00		 mov	 DWORD PTR _neg$[ebp], 1

; 26   :     c = *s++;

  0002f	eb 05		 jmp	 SHORT $LN36@strtol
$LN22@strtol:

; 27   :   }
; 28   :   else if (c == '+')

  00031	83 f9 2b	 cmp	 ecx, 43			; 0000002bH
  00034	75 04		 jne	 SHORT $LN34@strtol
$LN36@strtol:

; 29   :     c = *s++;

  00036	0f be 0f	 movsx	 ecx, BYTE PTR [edi]
  00039	47		 inc	 edi
$LN34@strtol:

; 30   :   if ((base == 0 || base == 16) &&
; 31   :       c == '0' && (*s == 'x' || *s == 'X'))

  0003a	8b 75 10	 mov	 esi, DWORD PTR _base$[ebp]
  0003d	85 f6		 test	 esi, esi
  0003f	74 05		 je	 SHORT $LN18@strtol
  00041	83 fe 10	 cmp	 esi, 16			; 00000010H
  00044	75 1f		 jne	 SHORT $LN35@strtol
$LN18@strtol:
  00046	83 f9 30	 cmp	 ecx, 48			; 00000030H
  00049	75 1a		 jne	 SHORT $LN35@strtol
  0004b	8a 07		 mov	 al, BYTE PTR [edi]
  0004d	3c 78		 cmp	 al, 120			; 00000078H
  0004f	74 04		 je	 SHORT $LN17@strtol
  00051	3c 58		 cmp	 al, 88			; 00000058H
  00053	75 10		 jne	 SHORT $LN35@strtol
$LN17@strtol:

; 32   :   {
; 33   :     c = s[1];

  00055	0f be 4f 01	 movsx	 ecx, BYTE PTR [edi+1]

; 34   :     s += 2;

  00059	83 c7 02	 add	 edi, 2

; 35   :     base = 16;

  0005c	c7 45 10 10 00
	00 00		 mov	 DWORD PTR _base$[ebp], 16 ; 00000010H

; 36   :   }
; 37   :   if (base == 0)

  00063	eb 13		 jmp	 SHORT $LN37@strtol
$LN35@strtol:
  00065	85 f6		 test	 esi, esi
  00067	75 12		 jne	 SHORT $LN16@strtol

; 38   :     base = c == '0' ? 8 : 10;

  00069	33 c0		 xor	 eax, eax
  0006b	83 f9 30	 cmp	 ecx, 48			; 00000030H
  0006e	0f 95 c0	 setne	 al
  00071	8d 44 00 08	 lea	 eax, DWORD PTR [eax+eax+8]
  00075	89 45 10	 mov	 DWORD PTR _base$[ebp], eax
$LN37@strtol:
  00078	8b 75 10	 mov	 esi, DWORD PTR _base$[ebp]
$LN16@strtol:

; 39   : 
; 40   :   /*
; 41   :    * Compute the cutoff value between legal numbers and illegal
; 42   :    * numbers.  That is the largest legal value, divided by the
; 43   :    * base.  An input number that is greater than this value, if
; 44   :    * followed by a legal input character, is too big.  One that
; 45   :    * is equal to this value may be valid or not; the limit
; 46   :    * between valid and invalid numbers is then based on the last
; 47   :    * digit.  For instance, if the range for longs is
; 48   :    * [-2147483648..2147483647] and the input base is 10,
; 49   :    * cutoff will be set to 214748364 and cutlim to either
; 50   :    * 7 (neg==0) or 8 (neg==1), meaning that if we have accumulated
; 51   :    * a value > 214748364, or equal but the next digit is > 7 (or 8),
; 52   :    * the number is too big, and we will return a range error.
; 53   :    *
; 54   :    * Set any if any `digits' consumed; make it negative to indicate
; 55   :    * overflow.
; 56   :    */
; 57   :   cutoff = neg ? ((unsigned long)LONG_MAX+1) : LONG_MAX;

  0007b	33 c0		 xor	 eax, eax
  0007d	39 45 f8	 cmp	 DWORD PTR _neg$[ebp], eax
  00080	53		 push	 ebx
  00081	0f 95 c0	 setne	 al

; 58   :   cutlim = cutoff % (unsigned long)base;

  00084	33 d2		 xor	 edx, edx
  00086	05 ff ff ff 7f	 add	 eax, 2147483647		; 7fffffffH
  0008b	89 45 f0	 mov	 DWORD PTR tv215[ebp], eax
  0008e	f7 f6		 div	 esi

; 59   :   cutoff /= (unsigned long)base;
; 60   :   for (acc = 0, any = 0;; c = *s++)

  00090	33 f6		 xor	 esi, esi
  00092	89 55 f4	 mov	 DWORD PTR tv307[ebp], edx
  00095	8b d0		 mov	 edx, eax
  00097	33 c0		 xor	 eax, eax
  00099	89 45 fc	 mov	 DWORD PTR _any$[ebp], eax
  0009c	8d 64 24 00	 npad	 4
$LL15@strtol:

; 61   :   {
; 62   :     if (isdigit(c))

  000a0	0f b6 d9	 movzx	 ebx, cl
  000a3	8a 9b 00 00 00
	00		 mov	 bl, BYTE PTR __ctype[ebx]
  000a9	f6 c3 04	 test	 bl, 4
  000ac	74 05		 je	 SHORT $LN12@strtol

; 63   :       c -= '0';

  000ae	83 e9 30	 sub	 ecx, 48			; 00000030H
  000b1	eb 17		 jmp	 SHORT $LN9@strtol
$LN12@strtol:

; 64   :     else if (isalpha(c))

  000b3	f6 c3 03	 test	 bl, 3
  000b6	74 4d		 je	 SHORT $LN32@strtol

; 65   :       c -= isupper(c) ? 'A' - 10 : 'a' - 10;

  000b8	80 e3 01	 and	 bl, 1
  000bb	0f b6 db	 movzx	 ebx, bl
  000be	f7 db		 neg	 ebx
  000c0	1b db		 sbb	 ebx, ebx
  000c2	83 e3 e0	 and	 ebx, -32		; ffffffe0H
  000c5	83 c3 57	 add	 ebx, 87			; 00000057H
  000c8	2b cb		 sub	 ecx, ebx
$LN9@strtol:

; 66   :     else
; 67   :       break;
; 68   :     if (c >= base)

  000ca	8b 5d 10	 mov	 ebx, DWORD PTR _base$[ebp]
  000cd	3b cb		 cmp	 ecx, ebx
  000cf	7d 34		 jge	 SHORT $LN32@strtol

; 69   :       break;
; 70   :     if (any < 0 || acc > cutoff || (acc == cutoff && c > cutlim))

  000d1	85 c0		 test	 eax, eax
  000d3	78 20		 js	 SHORT $LN6@strtol
  000d5	3b f2		 cmp	 esi, edx
  000d7	77 1c		 ja	 SHORT $LN6@strtol
  000d9	75 05		 jne	 SHORT $LN7@strtol
  000db	3b 4d f4	 cmp	 ecx, DWORD PTR tv307[ebp]
  000de	7f 15		 jg	 SHORT $LN6@strtol
$LN7@strtol:

; 72   :     else
; 73   :     {
; 74   :       any = 1;
; 75   :       acc *= base;

  000e0	0f af f3	 imul	 esi, ebx

; 76   :       acc += c;

  000e3	03 f1		 add	 esi, ecx
  000e5	0f be 0f	 movsx	 ecx, BYTE PTR [edi]
  000e8	c7 45 fc 01 00
	00 00		 mov	 DWORD PTR _any$[ebp], 1
  000ef	8b 45 fc	 mov	 eax, DWORD PTR _any$[ebp]
  000f2	47		 inc	 edi
  000f3	eb ab		 jmp	 SHORT $LL15@strtol
$LN6@strtol:

; 59   :   cutoff /= (unsigned long)base;
; 60   :   for (acc = 0, any = 0;; c = *s++)

  000f5	0f be 0f	 movsx	 ecx, BYTE PTR [edi]

; 71   :       any = -1;

  000f8	c7 45 fc ff ff
	ff ff		 mov	 DWORD PTR _any$[ebp], -1
  000ff	8b 45 fc	 mov	 eax, DWORD PTR _any$[ebp]
  00102	47		 inc	 edi
  00103	eb 9b		 jmp	 SHORT $LL15@strtol
$LN32@strtol:
  00105	5b		 pop	 ebx

; 77   :     }
; 78   :   }
; 79   :   if (any < 0)

  00106	85 c0		 test	 eax, eax
  00108	79 13		 jns	 SHORT $LN4@strtol

; 80   :   {
; 81   :     acc = neg ? LONG_MIN : LONG_MAX;

  0010a	8b 75 f0	 mov	 esi, DWORD PTR tv215[ebp]

; 82   :     errno = ERANGE;

  0010d	e8 00 00 00 00	 call	 ___errno
  00112	c7 00 22 00 00
	00		 mov	 DWORD PTR [eax], 34	; 00000022H
  00118	8b 45 fc	 mov	 eax, DWORD PTR _any$[ebp]
  0011b	eb 08		 jmp	 SHORT $LN2@strtol
$LN4@strtol:

; 83   :   }
; 84   :   else if (neg)

  0011d	83 7d f8 00	 cmp	 DWORD PTR _neg$[ebp], 0
  00121	74 02		 je	 SHORT $LN2@strtol

; 85   :     acc = 0-acc;

  00123	f7 de		 neg	 esi
$LN2@strtol:

; 86   :   if (endptr != 0)

  00125	8b 4d 0c	 mov	 ecx, DWORD PTR _endptr$[ebp]
  00128	85 c9		 test	 ecx, ecx
  0012a	74 0c		 je	 SHORT $LN33@strtol

; 87   :     *endptr = any ? (char *)((size_t)(s - 1)) : (char *)((size_t)nptr);

  0012c	85 c0		 test	 eax, eax
  0012e	8d 47 ff	 lea	 eax, DWORD PTR [edi-1]
  00131	75 03		 jne	 SHORT $LN29@strtol
  00133	8b 45 08	 mov	 eax, DWORD PTR _nptr$[ebp]
$LN29@strtol:
  00136	89 01		 mov	 DWORD PTR [ecx], eax
$LN33@strtol:
  00138	5f		 pop	 edi

; 88   :   return acc;

  00139	8b c6		 mov	 eax, esi
  0013b	5e		 pop	 esi

; 89   : }

  0013c	8b e5		 mov	 esp, ebp
  0013e	5d		 pop	 ebp
  0013f	c3		 ret	 0
_strtol	ENDP
_TEXT	ENDS
END
