; Listing generated by Microsoft (R) Optimizing Compiler Version 16.00.40219.01 

	TITLE	C:\Users\Phail\Documents\GitHub\MollenOS\clib\src\stdio\vprintf.c
	.686P
	.XMM
	include listing.inc
	.model	flat

INCLUDELIB MSVCRT
INCLUDELIB OLDNAMES

PUBLIC	_vprintf
EXTRN	_vsprintf:PROC
; Function compile flags: /Ogtp
; File c:\users\phail\documents\github\mollenos\clib\src\stdio\vprintf.c
;	COMDAT _vprintf
_TEXT	SEGMENT
_format$ = 8						; size = 4
_ap$ = 12						; size = 4
_vprintf PROC						; COMDAT

; 47   : {

  00000	55		 push	 ebp
  00001	8b ec		 mov	 ebp, esp

; 48   : 	//Decl
; 49   : 	int result = 0;
; 50   : 
; 51   : 	//Sanity
; 52   : 	if (format == NULL)

  00003	8b 45 08	 mov	 eax, DWORD PTR _format$[ebp]
  00006	85 c0		 test	 eax, eax
  00008	75 05		 jne	 SHORT $LN1@vprintf

; 53   : 		return -1;

  0000a	83 c8 ff	 or	 eax, -1

; 57   : 
; 58   : 	return result;
; 59   : }

  0000d	5d		 pop	 ebp
  0000e	c3		 ret	 0
$LN1@vprintf:

; 54   : 
; 55   : 	//sprintf
; 56   : 	result = vsprintf(NULL, format, ap);

  0000f	8b 4d 0c	 mov	 ecx, DWORD PTR _ap$[ebp]
  00012	51		 push	 ecx
  00013	50		 push	 eax
  00014	6a 00		 push	 0
  00016	e8 00 00 00 00	 call	 _vsprintf
  0001b	83 c4 0c	 add	 esp, 12			; 0000000cH

; 57   : 
; 58   : 	return result;
; 59   : }

  0001e	5d		 pop	 ebp
  0001f	c3		 ret	 0
_vprintf ENDP
_TEXT	ENDS
END
