; Listing generated by Microsoft (R) Optimizing Compiler Version 18.00.31101.0 

	TITLE	C:\Users\Philip\Documents\GitHub\MollenOS\clib\src\stdio\vsnprintf.c
	.686P
	.XMM
	include listing.inc
	.model	flat

INCLUDELIB MSVCRT
INCLUDELIB OLDNAMES

PUBLIC	_vsnprintf
EXTRN	_streamout:PROC
; Function compile flags: /Ogtp
; File c:\users\philip\documents\github\mollenos\clib\src\stdio\vsnprintf.c
;	COMDAT _vsnprintf
_TEXT	SEGMENT
_str$ = 8						; size = 4
_size$ = 12						; size = 4
_format$ = 16						; size = 4
_ap$ = 20						; size = 4
_vsnprintf PROC						; COMDAT

; 17   : {

  00000	55		 push	 ebp
  00001	8b ec		 mov	 ebp, esp

; 18   : 	int result;
; 19   : 	result = streamout(&str, size, format, ap);

  00003	ff 75 14	 push	 DWORD PTR _ap$[ebp]
  00006	8d 45 08	 lea	 eax, DWORD PTR _str$[ebp]
  00009	ff 75 10	 push	 DWORD PTR _format$[ebp]
  0000c	ff 75 0c	 push	 DWORD PTR _size$[ebp]
  0000f	50		 push	 eax
  00010	e8 00 00 00 00	 call	 _streamout
  00015	83 c4 10	 add	 esp, 16			; 00000010H

; 20   : 	return result;
; 21   : }

  00018	5d		 pop	 ebp
  00019	c3		 ret	 0
_vsnprintf ENDP
_TEXT	ENDS
END
